(dp0
S'postID'
p1
(lp2
I3967733345110131
aI3967732766305727
aI3967730811759574
aI3967730728486176
aI3967730358857401
aI3967729688331383
aI3967729616806627
aI3967728744064671
aI3967728391673674
aI3967728244513191
aI3967728065341768
aI3967727868267645
aI3967727867536482
aI3967727855430904
aI3967727720871100
aI3967726613830608
aI3967726613365805
aI3967726609169305
aI3967724726148050
aI3967724037914439
aI3967721421573875
aI3967721055776229
aI3967719495682674
aI3967717880637944
aI3967717214638373
aI3967716543514105
aI3967716475338901
aI3967715285305640
aI3967715137418105
aI3967714286334879
aI3967713132504434
aI3967712763348591
aI3967712265421971
aI3967711762113261
aI3967711048890108
aI3967710373337168
aI3967708871585872
aI3967707281656082
aI3967703339959143
aI3967701443926088
aI3967700612797137
aI3967696410377750
aI3967696410170508
aI3967696405775317
aI3967696405775270
aI3967694480644581
aI3967685320412198
aI3967681562548831
aI3967681310495027
aI3967677531178407
aI3967677447282866
aI3967666961735220
aI3967666211117121
aI3967661462994421
aI3967658661627032
aI3967658368485357
aI3967651363626422
aI3967649005983424
aI3967647412472835
aI3967646946818445
aI3967646510551473
aI3967646335207117
aI3967645453932878
aI3967645001268482
aI3967639787480399
aI3967627572832930
aI3967620908250241
aI3967620628080950
aI3967613657006823
aI3967602038997069
aI3967599484740016
aI3967597798283601
aI3967591758334544
aI3967590714191571
aI3967590713679695
aI3967586192329849
aI3967584817226756
aI3967584569867198
aI3967583789745339
aI3967583164044449
aI3967581352491186
aI3967580690179054
aI3967578404177876
aI3967577438573479
aI3967577115917180
aI3967576881243469
aI3967576621068008
aI3967575988264353
aI3967575890921343
aI3967575647897705
aI3967575643695929
aI3967575627148402
aI3967575618504606
aI3967575614819425
aI3967575026916818
aI3967574750330898
aI3967573178037503
aI3967571864471316
aI3967570263059822
aI3967569973642472
aI3967568810689095
aI3967568601236113
aI3967568161199586
aI3967567607983598
aI3967567599588346
aI3967567086856250
aI3967565765726464
aI3967564150951031
aI3967563920356600
aI3967563161559339
aI3967561609099910
aI3967561580787553
aI3967561371085986
aI3967561270299543
aI3967561252533597
aI3967561152981436
aI3967561085607568
aI3967561031459094
aI3967561013423426
aI3967560938876931
aI3967560766642277
aI3967560754533790
aI3967560514941358
aI3967560514776927
aI3967560514490552
aI3967558887699649
aI3967556555153327
aI3967555594814880
aI3967555309515350
aI3967555058391899
aI3967554995797979
aI3967554701569629
aI3967554499749140
aI3967554475070652
aI3967553619419580
aI3967553556684219
aI3967553111485653
aI3967552150847992
aI3967552109249378
aI3967552071452480
aI3967551447061992
aI3967550415369031
aI3967549941284005
aI3967549572534676
aI3967549190837268
aI3967548754463091
aI3967548179425116
aI3967547924030478
aI3967547562391100
aI3968290453530774
aI3968290412312015
aI3968290231187208
aI3968290226989610
aI3968290084446513
aI3968289933749514
aI3968289800030109
aI3968289547906344
aI3968289535054305
aI3968289480176364
aI3968289229274992
aI3968288776334433
aI3968288310391654
aI3968287417512850
aI3968287325294867
aI3968287031878297
aI3968286796614111
aI3968286775475270
aI3968286276857670
aI3968286091672678
aI3968286049932472
aI3968285899428557
aI3968285542720685
aI3968285542439798
aI3968285542437964
aI3968285521986607
aI3968285295131294
aI3968285290659435
aI3968285290348518
aI3968285290053180
aI3968284200576139
aI3968284192180355
aI3968284103970632
aI3968283952695761
aI3968283391229795
aI3968283235559586
aI3968282870149455
aI3968282803277965
aI3968282795060389
aI3968282689877162
aI3968282262026680
aI3968282069794838
aI3968280974766145
aI3968280391942152
aI3968280135760314
aI3968279762470907
aI3968279545065344
aI3968279481317935
aI3968279222004895
aI3968278596436321
aI3968278579421087
aI3968278135425073
aI3968277971658438
aI3968277921063190
aI3968277879510963
aI3968277837774007
aI3968277690310662
aI3968277346459008
aI3968277187283018
aI3968277107482305
aI3968276994343972
aI3968276868207528
aI3968276743150671
aI3968276629750789
aI3968276532862013
aI3968276491119885
aI3968276406650221
aI3968276218779690
aI3968275983451853
aI3968275958255463
aI3968275946088717
aI3968275773220051
aI3968275626627576
aI3968275416653830
aI3968275241691843
aI3968275006083828
aI3968274989283143
aI3968274960195044
aI3968274670221329
aI3968274536793092
aI3968274142259413
aI3968273667912409
aI3968273638765469
aI3968273597024044
aI3968273190442689
aI3968273064136265
aI3968272870866303
aI3968272058224862
aI3968271952992008
aI3968271931995919
aI3968271528828377
aI3968271319709670
aI3968271101876146
aI3968271096676811
aI3968270971396765
aI3968270967480154
aI3968270753228286
aI3968270719135891
aI3968465226350913
aI3968464442049492
aI3968463887798508
aI3968463707841289
aI3968463397726460
aI3968462717683561
aI3968462638621988
aI3968461459533332
aI3968458553270296
aI3968458503034249
aI3968458490441226
aI3968458334553238
aI3968458196120538
aI3968456409970809
aI3968455894228327
aI3968455801093259
aI3968455767803814
aI3968455088478104
aI3968454560120371
aI3968454384387979
aI3968453943888624
aI3968452823228535
aI3968452638653029
aI3968452550911646
aI3968452404215285
aI3968451951283969
aI3968451889003187
aI3968451385123494
aI3968451384931041
aI3968451380448633
aI3968451380448526
aI3968451380448158
aI3968450927825684
aI3968450596684785
aI3968448965052802
aI3968448528529963
aI3968448021120114
aI3968447777637683
aI3968447668742161
aI3968447609957875
aI3968447584951690
aI3968447014101370
aI3968445991575307
aI3968445789459918
aI3968441364397214
aI3968440579956540
aI3968440220246467
aI3968440190865409
aI3968440055859400
aI3968438932641391
aI3968438902831016
aI3968437544273074
aI3968437539184944
aI3968437396900562
aI3968437241345948
aI3968436537233218
aI3968436532672493
aI3968436373463019
aI3968436289710745
aI3968435802760599
aI3968432859219208
aI3968430803654766
aI3968429994116945
aI3968427137174969
aI3968425870830181
aI3968422372912819
aI3968421433179015
aI3968421433178992
aI3968421186162699
aI3968421181489854
aI3968418589500016
aI3968416957825295
aI3968412739312101
aI3968412247766096
aI3968406842098630
aI3968406648045016
aI3968406628075111
aI3968406082009174
aI3968398964275889
aI3968396829578715
aI3968394333971807
aI3968391490453995
aI3968391238667961
aI3968390986972253
aI3968385333571966
aI3968377145548614
aI3968375887714267
aI3968369822943364
aI3968363661077407
aI3968361040044997
aI3968360787917967
aI3968345689190163
aI3968339875811915
aI3968338139051900
aI3968330840615639
aI3968330631586400
aI3968330584374842
aI3968326022070192
aI3968325388839283
aI3968319926830242
aI3968530263413077
aI3968530015293217
aI3968529172166487
aI3968528820265470
aI3968528778948546
aI3968528753353446
aI3968528467641100
aI3968528295478976
aI3968528261921671
aI3968527733720185
aI3968527637614714
aI3968527625539942
aI3968527201040234
aI3968527134407305
aI3968527134313336
aI3968527100505266
aI3968526886573873
aI3968526883204764
aI3968526882378225
aI3968524151696679
aI3968523451245503
aI3968523107750082
aI3968523015218578
aI3968522953108903
aI3968520629392378
aI3968520490869586
aI3968519853008123
aI3968519836322488
aI3968518074912484
aI3968517969513200
aI3968517961575743
aI3968517688642230
aI3968517357662300
aI3968517013287403
aI3968515620548963
aI3968515394087354
aI3968514174250681
aI3968514065371638
aI3968514065371232
aI3968513716848916
aI3968513087695170
aI3968512096997928
aI3968512034339755
aI3968512034339704
aI3968511783507940
aI3968511782660196
aI3968511782659952
aI3968510977286072
aI3968509643697902
aI3968509001854487
aI3968508960953403
aI3968508909571530
aI3968508411327746
aI3968507580117446
aI3968506929682463
aI3968506213608746
aI3968505340830931
aI3968505320303363
aI3968504627537345
aI3968504459858414
aI3968504228550152
aI3968504060760658
aI3968503951696945
aI3968503864193608
aI3968503637090234
aI3968503230690173
aI3968503029544512
aI3968502899073004
aI3968502680945477
aI3968501977420002
aI3968501737970159
aI3968501720345500
aI3968500664510292
aI3968500634345947
aI3968500534373570
aI3968500458676826
aI3968499938639229
aI3968499791610653
aI3968499581930226
aI3968498843447972
aI3968498717833568
aI3968498415801519
aI3968498290331102
aI3968498268779842
aI3968498088518668
aI3968498055005115
aI3968497942523126
aI3968497438927167
aI3968496997917834
aI3968496809839754
aI3968496688323934
aI3968496683543033
aI3968496678736034
aI3968495320368174
aI3968495304006881
aI3968494884783335
aI3968494615484349
aI3969007801397810
aI3969007801145698
aI3969007642078612
aI3969007389853900
aI3969007369709766
aI3969006954070204
aI3969006610672828
aI3969006564555678
aI3969006559838688
aI3969006119654174
aI3969005381543669
aI3969005347927708
aI3969004655766557
aI3969004517730385
aI3969004206448910
aI3969004022725204
aI3969003912804980
aI3969003779053260
aI3969003716636089
aI3969003593990235
aI3969003413963117
aI3969003158287039
aI3969002898448188
aI3969002894244112
aI3969001825193460
aI3969001807791277
aI3969001690086403
aI3969001577462339
aI3969001543487874
aI3969001262738440
aI3969001178658719
aI3969001086859771
aI3969001023102469
aI3969000893355739
aI3969000809624361
aI3969000805420966
aI3969000683440965
aI3969000658082418
aI3969000645643066
aI3968999849570983
aI3968999756171418
aI3968999593048570
aI3968999504857001
aI3968998889153404
aI3968998879696566
aI3968998397780558
aI3968998192788461
aI3968998024801736
aI3968997986749509
aI3968997961415347
aI3968997878079547
aI3968997798580847
aI3968997524989520
aI3968997517159715
aI3968997222952595
aI3968996862686131
aI3968996799463075
aI3968996669741010
aI3968996363665908
aI3968995964746878
aI3968995785021253
aI3968995218761610
aI3968995189355262
aI3968995054463387
aI3968995020904579
aI3968995008629783
aI3968994967525064
aI3968994967008021
aI3968994966370978
aI3968994966370885
aI3968994341585352
aI3968993524685141
aI3968993512085672
aI3968992706583789
aI3968992576200718
aI3968992408446063
aI3968992294866502
aI3968991716057830
aI3968991460570450
aI3968991364150311
aI3968991317573896
aI3968990898781988
aI3968990403552918
aI3968990323765372
aI3968989719640178
aI3968988990333487
aI3968988713373226
aI3968988549295968
aI3968988381825976
aI3968988361162044
aI3968988155114590
aI3968988062509735
aI3968987899223766
aI3968986746560751
aI3968986520095587
aI3968986259553289
aI3968985672651441
aI3968985412198755
aI3968985408000372
aI3969172108513505
aI3969171894579644
aI3969170998254832
aI3969169705831311
aI3969169613940250
aI3969167902070815
aI3969166816224450
aI3969166094399453
aI3969164563137652
aI3969164231844082
aI3969163129408257
aI3969162454237494
aI3969161313556120
aI3969161064946906
aI3969161056557540
aI3969161056557299
aI3969160306908988
aI3969158213546231
aI3969154807524905
aI3969154769674212
aI3969153528367560
aI3969151078986983
aI3969150978245273
aI3969150856425975
aI3969149971520024
aI3969148478154063
aI3969147895258202
aI3969146267843779
aI3969146213715016
aI3969145957146639
aI3969145768775365
aI3969145575988972
aI3969144044597277
aI3969143122325746
aI3969139347000671
aI3969137816314476
aI3969132796187791
aI3969131869366583
aI3969131617300001
aI3969131570931376
aI3969130862080604
aI3969123791175437
aI3969120368123669
aI3969119176799274
aI3969117021257670
aI3969116954127086
aI3969115758098218
aI3969101413526118
aI3969100742787023
aI3969100663001591
aI3969085564443608
aI3969072553375981
aI3969071483713013
aI3969070464253457
aI3969061588838284
aI3969055364963987
aI3969043541182081
aI3969043469512144
aI3969043150940329
aI3969041020681341
aI3969040265917126
aI3969036125666076
aI3969035026957408
aI3969034339214592
aI3969028655347659
aI3969026624997404
aI3969026524696192
aI3969025778183958
aI3969025270624447
aI3969025182462405
aI3969025165900298
aI3969025161047732
aI3969023068743505
aI3969022585765995
aI3969022288915549
aI3969021604668388
aI3969021374178696
aI3969020976311204
aI3969020640164562
aI3969020300230818
aI3969019973706553
aI3969019889734603
aI3969019880965994
aI3969019641894978
aI3969019096463097
aI3969019054475197
aI3969018103001387
aI3969017473680108
aI3969016487710571
aI3969015498396947
aI3969015271909573
aI3969015183734781
aI3969014886270384
aI3969014826993572
aI3970380915483865
aI3970380656447040
aI3970379872113915
aI3970376642185921
aI3970376318864329
aI3970375614333938
aI3970374687395410
aI3970374535842496
aI3970374167385036
aI3970374053869461
aI3970373991445733
aI3970373412248030
aI3970373064463802
aI3970373001388046
aI3970371588126076
aI3970371285209290
aI3970370258805326
aI3970370027346932
aI3970369742538447
aI3970369272548760
aI3970369130018126
aI3970368559837622
aI3970367384672383
aI3970366861073592
aI3970365560420802
aI3970364952017491
aI3970364524513704
aI3970363513656901
aI3970361915591161
aI3970361722477684
aI3970361202649085
aI3970360259138596
aI3970358757140965
aI3970357998735698
aI3970357825788435
aI3970357523771883
aI3970357213915422
aI3970356689429303
aI3970356672634598
aI3970356605139030
aI3970356526021098
aI3970356278295953
aI3970356013951945
aI3970355527368257
aI3970355250519077
aI3970354596854701
aI3970354429167989
aI3970354244479978
aI3970353921410434
aI3970353921410261
aI3970353921407923
aI3970353920806125
aI3970353425831781
aI3970352360744607
aI3970351216203934
aI3970349923801919
aI3970349710316694
aI3970349584638626
aI3970349500950216
aI3970348712644615
aI3970346371652411
aI3970344965984472
aI3970344627091702
aI3970344031291507
aI3970343603681817
aI3970343443891438
aI3970341527677456
aI3970341379821290
aI3970340390375786
aI3970340386178295
aI3970340080821423
aI3970340058769041
aI3970339950697787
aI3970339073816258
aI3970339073393993
aI3970338822358290
aI3970338821783183
aI3970338821659222
aI3970338804567464
aI3970338717196640
aI3970337886411271
aI3970336300850323
aI3970333789344990
aI3970333382129872
aI3970333339645644
aI3970332529894115
aI3970332153251703
aI3970331775719035
aI3970330663532133
aI3970330445409942
aI3970330215041987
aI3970328754958993
aI3970327501015845
aI3970327496820883
aI3970327480527043
aI3970327220255947
aI3970326464932120
aI3970326104428146
aI3970475774291274
aI3970475724487944
aI3970475669134397
aI3970475485046973
aI3970474969080904
aI3970471953292099
aI3970471114288996
aI3970470455282621
aI3970470371930819
aI3970470196273415
aI3970469726286315
aI3970468577384487
aI3970468246188937
aI3970467893029963
aI3970467801341277
aI3970467561557922
aI3970467285183719
aI3970467167489718
aI3970466164782511
aI3970466148250060
aI3970465339479098
aI3970465272287282
aI3970465209293862
aI3970464360965115
aI3970463833234768
aI3970463602282828
aI3970463581548398
aI3970463393353913
aI3970463350828207
aI3970462150809319
aI3970461509260164
aI3970461295344362
aI3970460716371180
aI3970460372542860
aI3970460339892275
aI3970460087712266
aI3970460041289108
aI3970459869568514
aI3970459869340208
aI3970459622475812
aI3970459445394883
aI3970458946692734
aI3970458757989551
aI3970457198267121
aI3970457043126561
aI3970456807448895
aI3970456384077328
aI3970455730282067
aI3970455335277623
aI3970455264701406
aI3970455134272288
aI3970454642808592
aI3970454320381526
aI3970453947166021
aI3970453557171183
aI3970453208885629
aI3970452898007230
aI3970452185389501
aI3970452130611953
aI3970452067770375
aI3970451766541574
aI3970450843446608
aI3970450490927836
aI3970450440085010
aI3970450055034343
aI3970448938592796
aI3970448909813501
aI3970448519760612
aI3970448477548214
aI3970447127061791
aI3970446854613978
aI3970446624271090
aI3970446233552072
aI3970446137223475
aI3970445977566007
aI3970445919730098
aI3970445268639045
aI3970445164253034
aI3970445022178583
aI3970444962683387
aI3970444769707466
aI3970444673595663
aI3970444622939242
aI3970444518181226
aI3970444518181014
aI3970444513567612
aI3970444295435731
aI3970444102953835
aI3970444069355775
aI3970443146500636
aI3970442555174992
aI3970442219251501
aI3970442123913344
aI3970440999053170
aI3970440742936157
aI3970439987871259
aI3970439716331800
aI3970649024848894
aI3970648525269414
aI3970648357372486
aI3970648327983952
aI3970647492947839
aI3970646037238472
aI3970645719062293
aI3970645677087937
aI3970645006487899
aI3970644704499822
aI3970643407820433
aI3970642321491517
aI3970642069848637
aI3970641424056136
aI3970641419590704
aI3970641063492763
aI3970641059293297
aI3970640811457441
aI3970639854877822
aI3970637896641412
aI3970635837332720
aI3970635773851983
aI3970635275619596
aI3970632423223863
aI3970629366103257
aI3970628380027035
aI3970628341831081
aI3970628237551772
aI3970627507679647
aI3970627334958550
aI3970627171928542
aI3970626970660246
aI3970626735392214
aI3970626681818968
aI3970626462442568
aI3970626030733849
aI3970625712606357
aI3970619567667791
aI3970619127097046
aI3970617684027683
aI3970615645923853
aI3970614387448283
aI3970612789222631
aI3970612428827288
aI3970611157705900
aI3970611116472296
aI3970610693108549
aI3970610612547589
aI3970610608188834
aI3970605893861901
aI3970603985972125
aI3970602429548191
aI3970601893397842
aI3970600965467706
aI3970600252357219
aI3970599502080848
aI3970596268919286
aI3970595777290149
aI3970595508610799
aI3970595508610697
aI3970595508610677
aI3970595454225830
aI3970592934413403
aI3970590211335261
aI3970582971942460
aI3970580665316738
aI3970580447222676
aI3970580409071540
aI3970576663533119
aI3970576638802475
aI3970567285674477
aI3970567004579689
aI3970565817723644
aI3970564181209669
aI3970561178696127
aI3970557764422112
aI3970550466494985
aI3970550214677211
aI3970546117491970
aI3970545189783590
aI3970538889939420
aI3970535115059443
aI3970520015600054
aI3970520011226033
aI3970504916259617
aI3970501142070780
aI3970499409157125
aI3970497043481050
aI3970492924229043
aI3970490538447015
aI3970489560482029
aI3970486503022278
aI3970483525874305
aI3970482266855439
aI3970481004505891
aI3970480832998122
aI3970478000884909
aI3970477934266494
aI3970477162202147
aI3970961885822242
aI3970958563564907
aI3970958152595796
aI3970958081764146
aI3970957901465498
aI3970957901206193
aI3970951777059344
aI3970949788998728
aI3970949541946299
aI3970949282381066
aI3970949164587213
aI3970943557090799
aI3970943028140208
aI3970942801665379
aI3970942801323610
aI3970942230849702
aI3970940709096863
aI3970929593419968
aI3970927953914090
aI3970927702529519
aI3970927702069776
aI3970923407373393
aI3970922295991227
aI3970913856367267
aI3970913806260787
aI3970912602538865
aI3970912598005318
aI3970897503134114
aI3970897498503887
aI3970882404254359
aI3970882404038124
aI3970877496893685
aI3970874858425158
aI3970874732855555
aI3970871120707956
aI3970867303907057
aI3970867303906824
aI3970867270343562
aI3970864267741649
aI3970859755101300
aI3970854646444709
aI3970853719107067
aI3970852199998700
aI3970852199998608
aI3970846794610670
aI3970846429059527
aI3970844654622245
aI3970842138519215
aI3970840473249737
aI3970840288574298
aI3970839680258452
aI3970839340517903
aI3970839122740563
aI3970837943724815
aI3970837927928455
aI3970837168584572
aI3970837147086629
aI3970837117959563
aI3970837113760930
aI3970837109562835
aI3970837046584344
aI3970834811458753
aI3970834399551743
aI3970833464962096
aI3970833422408258
aI3970833309476738
aI3970831471963377
aI3970831358873006
aI3970831077840582
aI3970829941320332
aI3970829555530909
aI3970828595215306
aI3970828515438065
aI3970828070177933
aI3970826531085529
aI3970826493696941
aI3970826284002589
aI3970826098886804
aI3970825894303199
aI3970824627088246
aI3970824614275541
aI3970824287220407
aI3970824124370434
aI3970823519346217
aI3970823516028715
aI3970823205513569
aI3970823188715195
aI3970823028555373
aI3970822982646510
aI3970822957740241
aI3970822392092835
aI3970822261917008
aI3970822257458480
aI3970822006192758
aI3970822005346783
aI3970822005346500
aI3970822005288997
aI3971518394055230
aI3971518356927149
aI3971517988080172
aI3971517953976947
aI3971517857239514
aI3971517777431646
aI3971517727771274
aI3971517698268277
aI3971517652110419
aI3971517316008540
aI3971517094289525
aI3971516834739099
aI3971516834338663
aI3971516834101163
aI3971516833863231
aI3971516682948324
aI3971516645506484
aI3971516590569856
aI3971516587260749
aI3971516494662989
aI3971515740013262
aI3971515475494562
aI3971515437251078
aI3971515407974598
aI3971515093856942
aI3971514787279774
aI3971514749740045
aI3971514368484757
aI3971514263089774
aI3971514195400035
aI3971512329011337
aI3971511842695549
aI3971510831910933
aI3971510680967249
aI3971509934730822
aI3971509531373746
aI3971509494572123
aI3971509376575397
aI3971509272197312
aI3971509225775227
aI3971509099636851
aI3971509078648401
aI3971508201637886
aI3971508084762187
aI3971508072068758
aI3971507966733173
aI3971507895790822
aI3971507816706793
aI3971507682678695
aI3971507401776531
aI3971507174829596
aI3971506793110588
aI3971506617297444
aI3971506193220152
aI3971505874109157
aI3971505756574787
aI3971505366903801
aI3971505358350969
aI3971505261798918
aI3971505060334530
aI3971504691177688
aI3971504306156879
aI3971504229758846
aI3971504146816732
aI3971503630096992
aI3971503530244692
aI3971503319766326
aI3971502745341140
aI3971502292724587
aI3971501944915205
aI3971501751154452
aI3971501734602074
aI3971501734161901
aI3971501529233046
aI3971501483480605
aI3971501482725872
aI3971501294757379
aI3971501231631330
aI3971500980287649
aI3971500955085091
aI3971500790698588
aI3971500661357456
aI3971499499202178
aI3971499444866866
aI3971499247085663
aI3971498291488101
aI3971498291487687
aI3971498186693392
aI3971497539702601
aI3971497045604973
aI3971496617808461
aI3971495187086816
aI3971494742471347
aI3971494268465756
aI3971494071893324
aI3971493949572367
aI3971493945377964
aI3971493936988460
aI3971493685306119
aI3971493375321620
aI3972259640845397
aI3972258915283300
aI3972258826927784
aI3972258751418447
aI3972258537475561
aI3972258034367415
aI3972257825454487
aI3972257782714709
aI3972257758493558
aI3972257485373677
aI3972257204787566
aI3972257032570846
aI3972256906990712
aI3972256780933875
aI3972256739146934
aI3972256709989006
aI3972256659057749
aI3972256524648682
aI3972256457779452
aI3972256457460932
aI3972256457035776
aI3972255782893367
aI3972255538804097
aI3972255288044114
aI3972254955994433
aI3972254184627886
aI3972254163520453
aI3972254016584001
aI3972253987193192
aI3972253844366335
aI3972253684678671
aI3972253399978426
aI3972252930107276
aI3972252703631642
aI3972251785800404
aI3972250938370488
aI3972250879535962
aI3972250832774845
aI3972250765510277
aI3972250669025968
aI3972250519041073
aI3972250484449079
aI3972250166644682
aI3972250103887094
aI3972249608301457
aI3972248940957808
aI3972248916697381
aI3972248568504475
aI3972248547754083
aI3972248333776479
aI3972248273963121
aI3972248186736038
aI3972247775811531
aI3972247644991764
aI3972247578349999
aI3972247557588075
aI3972247204940180
aI3972246999242134
aI3972246940688858
aI3972246940455592
aI3972245791604947
aI3972245669768466
aI3972245204711053
aI3972244919090536
aI3972244545949637
aI3972244349192896
aI3972244147087183
aI3972243958629999
aI3972243899457990
aI3972243849991089
aI3972243623406908
aI3972243560305888
aI3972243476829216
aI3972243245351944
aI3972242989464503
aI3972242783971398
aI3972242682940885
aI3972242624474846
aI3972242611889929
aI3972242067501375
aI3972242042301146
aI3972241991049249
aI3972241882870246
aI3972241731431582
aI3972241609629517
aI3972241605124937
aI3972241605124907
aI3972241358282544
aI3972241357949285
aI3972240486054123
aI3972239860334477
aI3972239374584576
aI3972239303178500
aI3972238849367593
aI3972238586016903
aI3972238446921754
aI3972238435278925
aI3972238228788876
aI3972238082164314
aI3972237512111668
aI3972639481423541
aI3972639079148305
aI3972638978012306
aI3972638882341599
aI3972638290433471
aI3972638039178591
aI3972637719699502
aI3972637132788544
aI3972636986471637
aI3972636742629265
aI3972635958338743
aI3972635929220621
aI3972635727685944
aI3972635375909347
aI3972634838238232
aI3972634448616201
aI3972634398099424
aI3972634381306226
aI3972634317831431
aI3972634297331341
aI3972634284523782
aI3972634196824339
aI3972633949351531
aI3972633450003246
aI3972633287079997
aI3972633185784197
aI3972632523337920
aI3972632410492887
aI3972632242225989
aI3972631440606220
aI3972630987547690
aI3972630917292736
aI3972630808010471
aI3972630414066803
aI3972629872112546
aI3972629163951523
aI3972628932941565
aI3972628027447811
aI3972627959730206
aI3972627767273212
aI3972627766329938
aI3972627049794616
aI3972627003851921
aI3972626882015431
aI3972626567012400
aI3972626395918832
aI3972626395620528
aI3972625955079925
aI3972624461975473
aI3972624302213599
aI3972623886496890
aI3972623878507329
aI3972623665138103
aI3972622872203509
aI3972622871860432
aI3972622729658744
aI3972622721657207
aI3972622692243844
aI3972622670559959
aI3972622628263136
aI3972622620661281
aI3972622545306204
aI3972622146237774
aI3972621621727366
aI3972621567316295
aI3972621148255143
aI3972620699574243
aI3972620598152955
aI3972620342520074
aI3972620288883370
aI3972620120184567
aI3972619910434788
aI3972619848506982
aI3972619621350206
aI3972619344469809
aI3972619319947623
aI3972619106138845
aI3972619097453469
aI3972619092410872
aI3972619008510414
aI3972618916636827
aI3972618916634820
aI3972618912024758
aI3972618870588746
aI3972618850300472
aI3972618845242346
aI3972617930956375
aI3972617825789006
aI3972617440222725
aI3972617108782464
aI3972616572593313
aI3972616337428424
aI3972615221236695
aI3972615078607838
aI3972614671943746
aI3972614298785226
aI3972614156833922
aI3972613443009637
aI3972613128338630
aI3972613056895003
asS'repostNo'
p3
(lp4
I3638
aI238
aI634
aI52
aI30
aI0
aI11
aI17248
aI2891
aI574
aI647
aI3673
aI1335
aI128
aI62
aI1460
aI26
aI497
aI2065
aI258
aI337
aI32
aI99
aI1567
aI5159
aI1639
aI22843
aI30
aI633
aI50
aI1205
aI708
aI4477
aI1165
aI0
aI0
aI0
aI0
aI0
aI1632
aI1090
aI2769
aI565
aI17213
aI17
aI363
aI237
aI3434
aI2499
aI62
aI1975
aI2805
aI669
aI421
aI148
aI110
aI5679
aI0
aI0
aI0
aI0
aI0
aI0
aI0
aI304
aI475
aI161
aI82
aI133
aI75
aI501
aI7935
aI3080
aI1430
aI1157
aI9
aI1843
aI276
aI1088
aI92
aI9603
aI149
aI115
aI627
aI2075
aI1383
aI864
aI3864
aI2793
aI411
aI232
aI1488
aI319
aI412
aI377
aI1156
aI93
aI720
aI409
aI4576
aI1358
aI1336
aI2563
aI7246
aI1225
aI623
aI243
aI1495
aI2140
aI1452
aI349
aI32594
aI1317
aI525
aI544
aI275
aI883
aI700
aI1554
aI747
aI4611
aI1302
aI876
aI1519
aI230
aI1046
aI2283
aI265
aI111
aI330
aI360
aI786
aI48
aI829
aI1525
aI0
aI1585
aI7270
aI3490
aI887
aI0
aI715
aI679
aI644
aI921
aI747
aI1748
aI2212
aI14787
aI3193
aI2667
aI1031
aI279
aI46
aI89
aI1909
aI1131
aI996
aI615
aI1487
aI781
aI29636
aI133
aI1962
aI3939
aI3794
aI1686
aI46
aI339
aI1149
aI75
aI1361
aI2506
aI237
aI950
aI0
aI274
aI46
aI1522
aI382
aI8051
aI1712
aI94
aI2656
aI2913
aI3498
aI1869
aI138
aI1419
aI54
aI1481
aI441
aI4056
aI2036
aI826
aI93
aI874
aI2602
aI36
aI26
aI1570
aI589
aI212
aI336
aI342
aI3035
aI4
aI1546
aI7545
aI150
aI696
aI3460
aI4
aI208
aI675
aI4
aI634
aI1316
aI1213
aI1412
aI9
aI98
aI29
aI269
aI702
aI54
aI1655
aI5
aI225
aI57
aI260
aI79
aI723
aI6694
aI3258
aI1301
aI2150
aI1592
aI320
aI27807
aI617
aI308
aI33204
aI0
aI18277
aI925
aI1733
aI14
aI1270
aI2690
aI794
aI157
aI4335
aI11
aI2129
aI233
aI101
aI2651
aI0
aI563
aI224
aI251
aI0
aI1
aI1496
aI29
aI588
aI154
aI778
aI1099
aI741
aI744
aI1270
aI3306
aI1927
aI59
aI577
aI3407
aI164
aI237
aI50
aI936
aI92
aI176
aI6237
aI530
aI14
aI1166
aI114
aI367
aI1708
aI0
aI509
aI12
aI186
aI577
aI327
aI663
aI5297
aI943
aI1219
aI203
aI611
aI1047
aI3480
aI25
aI52
aI132
aI646
aI58
aI931
aI165
aI288
aI1152
aI8489
aI3004
aI71
aI1446
aI247
aI130
aI535
aI8113
aI510
aI847
aI132
aI118
aI660
aI787
aI3869
aI1192
aI57
aI12
aI3277
aI97
aI302
aI52
aI1314
aI144
aI36
aI906
aI117
aI1359
aI429
aI103
aI40
aI11
aI26
aI55
aI305
aI35
aI1056
aI8
aI13
aI20
aI175
aI22
aI3275
aI2154
aI225
aI809
aI678
aI3588
aI5810
aI31
aI41
aI67228
aI8
aI10
aI74
aI102
aI2509
aI168
aI245
aI745
aI10958
aI16
aI1401
aI91
aI381
aI756
aI186
aI3731
aI1245
aI795
aI12644
aI2652
aI2411
aI3447
aI5049
aI3209
aI415
aI96
aI113
aI4177
aI1026
aI3854
aI978
aI1990
aI1536
aI91
aI932
aI402
aI8977
aI82
aI226
aI10833
aI189
aI1354
aI3580
aI235
aI1498
aI382
aI4898
aI390
aI561
aI554
aI902
aI3035
aI852
aI408
aI112
aI2249
aI34
aI1759
aI1025
aI5824
aI2014
aI1030
aI4277
aI35337
aI575
aI794
aI711
aI1061
aI585
aI188
aI260
aI100
aI70
aI147
aI863
aI3
aI11512
aI971
aI835
aI1266
aI941
aI6701
aI2
aI1334
aI350
aI3
aI168
aI0
aI696
aI514
aI2616
aI7680
aI7087
aI217
aI21
aI3
aI1213
aI411
aI61
aI95
aI2190
aI1406
aI5259
aI538
aI7968
aI2201
aI1216
aI2243
aI1037
aI334
aI847
aI2861
aI505
aI100
aI1444
aI1472
aI806
aI124
aI3897
aI914
aI1286
aI2520
aI890
aI655
aI960
aI334
aI56
aI552
aI464
aI587
aI430
aI19
aI249
aI96
aI2658
aI11693
aI20451
aI412
aI8497
aI191
aI882
aI1233
aI11
aI2106
aI180
aI502
aI92
aI307
aI1797
aI70
aI699
aI602
aI1062
aI381
aI28
aI190
aI3
aI811
aI2777
aI461
aI5
aI4570
aI0
aI940
aI1812
aI0
aI55
aI8184
aI1391
aI1171
aI54
aI483
aI1331
aI1038
aI4088
aI801
aI7145
aI206
aI0
aI164
aI37
aI134
aI487
aI1202
aI1844
aI519
aI184
aI3563
aI0
aI856
aI3670
aI3636
aI40
aI18794
aI16
aI953
aI22
aI78
aI0
aI136
aI368
aI0
aI1758
aI53
aI1
aI4440
aI78
aI0
aI0
aI0
aI595
aI0
aI2552
aI123
aI37
aI4607
aI418
aI572
aI16
aI732
aI1
aI16291
aI318
aI92
aI4739
aI695
aI589
aI149
aI34
aI2869
aI76
aI329
aI25
aI18831
aI16
aI953
aI22
aI78
aI0
aI137
aI368
aI0
aI1760
aI53
aI1
aI4441
aI78
aI0
aI0
aI0
aI594
aI0
aI2553
aI123
aI37
aI4604
aI418
aI570
aI16
aI731
aI1
aI16279
aI318
aI92
aI4740
aI694
aI589
aI149
aI34
aI2867
aI76
aI329
aI25
aI352
aI512
aI786
aI3295
aI207
aI645
aI810
aI334
aI1809
aI144
aI5261
aI372
aI1402
aI2392
aI13971
aI105
aI1468
aI77
aI329
aI509
aI876
aI82
aI2319
aI1446
aI5
aI28
aI2178
aI14
aI0
aI47
aI6
aI3388
aI1266
aI1603
aI7976
aI8937
aI1871
aI857
aI187
aI1412
aI316
aI25
aI252
aI972
aI733
aI510
aI10144
aI43
aI115
aI802
aI5440
aI13
aI1684
aI451
aI199
aI1376
aI1739
aI1912
aI971
aI656
aI974
aI1568
aI2822
aI376
aI440
aI3151
aI1690
aI18
aI728
aI1389
aI381
aI493
aI572
aI642
aI194
aI7
aI749
aI1835
aI2190
aI102
aI927
aI298
aI2274
aI1863
aI1046
aI1713
aI55
aI37
aI12
aI3359
aI242
aI232
aI327
aI3476
aI219
aI892
aI1309
aI1111
aI442
aI2193
aI3493
aI2328
aI29
aI2361
aI424
aI1443
aI2
aI5926
aI1826
aI1287
aI1536
aI460
aI742
aI1265
aI2332
aI4
aI4069
aI24
aI532
aI1668
aI2643
aI40
aI508
aI217
aI880
aI1828
aI1677
aI3372
aI1500
aI295
aI1338
aI889
aI2345
aI830
aI1540
aI1186
aI318
aI1035
aI150
aI764
aI368
aI773
aI1387
aI5497
aI5550
aI4591
aI650
aI1455
aI1210
aI603
aI1285
aI336
aI600
aI947
aI402
aI568
aI1577
aI761
aI3721
aI174
aI15
aI211
aI7863
aI1874
aI727
aI2180
aI850
aI804
aI4712
aI2910
aI1287
aI24297
aI0
aI385
aI20459
aI519
aI644
aI4363
aI278
aI49
aI310
aI4355
aI523
aI3660
aI2274
aI3400
aI502
aI0
aI1244
aI886
aI906
aI741
aI2017
aI18
aI32
aI0
aI4
aI847
aI252
aI137
aI28
aI473
aI398
aI1
aI347
aI1038
aI287
aI143
aI217
aI869
aI58
aI399
aI959
aI760
aI3
aI1347
aI689
aI13
aI3202
aI687
aI769
aI129
aI996
aI12581
aI5702
aI1607
aI1304
aI2400
aI1569
aI13
aI608
aI53
aI391
aI23
aI48
aI328
aI2541
aI297
aI5051
aI3750
aI384
aI622
aI7
aI1712
aI0
aI0
aI665
aI3327
aI0
aI2425
aI218
aI62
aI2466
aI862
aI301
aI899
aI0
aI83
aI2895
aI12408
aI1134
aI224
aI148
aI0
aI0
aI1829
aI4328
aI977
aI240
aI2141
aI1257
aI2790
aI223
aI70
aI864
aI77
aI721
aI604
aI192
aI396
aI50606
aI463
aI1158
aI686
aI75668
aI483
aI38
aI3
aI1531
aI292
aI347
aI683
aI136
aI0
aI570
aI179
aI73
aI60
aI130
aI0
aI0
aI26
aI14
aI1817
aI0
aI49
aI215
aI755
aI388
aI2376
aI1229
aI91
aI522
aI8
aI0
aI1817
aI139
aI385
aI97
aI14
aI427
aI544
aI81
aI365
aI81
aI595
aI15
aI580
aI67
aI10
aI319
aI756
aI1147
aI663
aI481
aI464
aI1102
aI280
aI280
aI747
aI784
aI1646
aI2635
aI481
aI41
aI1042
aI3512
aI392
aI5490
aI820
aI161
aI918
aI212
aI6278
aI304
aI625
aI1478
aI2360
aI2203
aI321
aI1208
aI1192
aI792
aI8607
aI807
aI757
aI1558
aI151
aI2202
aI217
aI1620
aI309
aI1803
aI712
aI110
aI504
aI519
aI1003
aI796
aI3015
aI64
aI1503
aI2300
aI1289
aI270
aI25752
aI41
aI463
aI150
aI46
aI12
aI18
aI6
aI9
aI18
aI14
aI16
aI7
aI3
aI32
aI585
aI36
aI9
aI77
aI0
aI72
aI2
aI3
aI0
aI34
aI25
aI171
aI34
aI272
aI148
aI102
aI139
aI249
aI210
aI203
aI25
aI642
aI267
aI0
aI40
aI337
aI121
aI0
aI39
aI27
aI513
aI22
aI700
aI314
aI91
aI288
aI0
aI0
aI0
aI0
aI641
aI1361
aI322
aI23
aI16
aI169
aI107
aI9
aI91
aI78
aI2136
aI54
aI297
aI81
aI84
aI14
aI30
aI124
aI1999
aI272
aI862
aI200
aI17
aI3
aI21
aI0
aI1
aI2372
aI158
aI670
aI285
aI328
aI86
aI644
aI751
aI451
aI0
aI297
aI64
aI153
aI30
aI139
aI37
aI435
aI310
aI388
aI36
aI33
aI939
aI99
aI693
aI13
aI296
aI66
aI497
aI1683
aI313
aI392
aI14
aI11
aI29
aI324
aI114
aI814
aI484
aI75
aI65
aI41
aI256
aI12
aI150
aI304
aI196
aI416
aI75
aI339
aI18
aI24
aI143
aI46
aI181
aI49
aI25
aI313
aI116
aI313
aI858
aI549
aI667
aI51
aI1344
aI23
aI403
aI54
aI8
aI111
aI963
aI485
aI914
aI474
aI103
aI1030
aI16
aI445
aI1494
aI552
aI241
aI1384
aI811
aI274
aI467
aI508
aI556
aI1041
aI843
aI306
aI383
aI3
aI17
aI1016
aI861
aI249
aI97
aI609
aI138
aI178
aI20
aI66
aI41
aI2566
aI56
aI65
aI22
aI1324
aI55
aI961
aI482
aI77
aI264
aI132
aI71
aI23
aI301
aI537
aI191
aI1217
aI281
aI778
aI30
aI51
aI331
aI2558
aI928
aI10
aI62
aI42
aI439
aI755
aI519
aI511
aI689
aI6876
aI367
aI1
aI2114
aI151
aI1134
aI270
aI1273
aI323
aI141
aI540
aI2752
aI1253
aI6529
aI1
aI0
aI0
aI1405
aI301
aI1648
aI180
aI503
aI608
aI2392
aI1168
aI38
aI200
aI302
aI635
aI269
aI1
aI1
aI101
aI854
aI563
aI1510
aI1173
aI354
aI2
aI2314
aI1414
aI1072
aI669
aI101
aI809
aI157
aI6289
aI1366
aI20
aI549
aI506
aI4
aI183
aI3257
aI168
aI28
aI3033
aI9587
aI19
aI1214
aI97
aI191
aI2093
aI497
aI958
aI2348
aI8410
aI120
aI4
aI2
aI7
aI7642
aI437
aI66
aI3
aI202
aI5
aI1353
aI852
aI451
aI242
aI1
aI620
aI288
aI1200
aI326
aI351
aI663
asS'userID'
p5
(lp6
I3229125510
aI1098618600
aI2709577332
aI1098618600
aI2903316485
aI1409138147
aI1098618600
aI1764222885
aI2709577332
aI1618051664
aI3305085281
aI1742566624
aI2430259303
aI3305085281
aI1098618600
aI2891529877
aI2995631244
aI2903316485
aI3229125510
aI1098618600
aI1098618600
aI1896481783
aI1098618600
aI3305085281
aI1764222885
aI3948798687
aI1788911247
aI3177527181
aI2709577332
aI1098618600
aI1618051664
aI2430259303
aI1742566624
aI2709577332
aI2160982845
aI2160982845
aI2160982845
aI2160982845
aI2160982845
aI2430259303
aI1788911247
aI1644395354
aI3305085281
aI1742566624
aI3177527181
aI1618051664
aI3177527181
aI1742566624
aI3305085281
aI3177527181
aI1618051664
aI1742566624
aI3305085281
aI1618051664
aI3177527181
aI3177527181
aI1742566624
aI2160982845
aI2160982845
aI2160982845
aI2160982845
aI2160982845
aI2160982845
aI2160982845
aI3177527181
aI1788911247
aI3177527181
aI2970036311
aI5639849121
aI3177527181
aI3177527181
aI3217179555
aI1742566624
aI3305085281
aI3305085281
aI5040955225
aI1713926427
aI1805982651
aI1742566624
aI3177527181
aI1713926427
aI1098618600
aI1644395354
aI3228016330
aI1742566624
aI1713926427
aI2144684673
aI3217179555
aI1805982651
aI1618051664
aI1098618600
aI2891529877
aI3305085281
aI5220839587
aI1790597487
aI3228016330
aI1098618600
aI2709577332
aI1344386244
aI3217179555
aI2430259303
aI2182038504
aI2891529877
aI2182038504
aI1742566624
aI2620694653
aI1788911247
aI2123664205
aI1742566624
aI2709577332
aI2241275235
aI2549228714
aI1736693382
aI5154200142
aI2891529877
aI2182038504
aI2478838621
aI3228016330
aI1742566624
aI3228016330
aI2709577332
aI2970036311
aI1896481783
aI3305085281
aI1764222885
aI1742566624
aI1742566624
aI1805982651
aI2620694653
aI5154200142
aI5154200142
aI3228016330
aI5639849121
aI3228016330
aI3305085281
aI2160982845
aI2891529877
aI1618051664
aI1742566624
aI2970036311
aI2160982845
aI5154200142
aI3099016097
aI3305085281
aI2430259303
aI2709577332
aI1952225710
aI2182038504
aI1774662372
aI1742566624
aI3217179555
aI2549228714
aI1764222885
aI1098618600
aI1344386244
aI1774662372
aI5154200142
aI1805982651
aI2709577332
aI3228016330
aI2182038504
aI1713926427
aI2970036311
aI3099016097
aI1644395354
aI1742566624
aI2478838621
aI5154200142
aI3228016330
aI3228016330
aI3228016330
aI2709577332
aI3305085281
aI1896481783
aI1764222885
aI2241275235
aI3177527181
aI2995631244
aI5220839587
aI1764222885
aI1713926427
aI1742566624
aI1618051664
aI2478838621
aI2995631244
aI3099016097
aI1742566624
aI1896481783
aI2182038504
aI2430259303
aI5126427168
aI3228016330
aI1952225710
aI1742566624
aI2891529877
aI2241275235
aI3099016097
aI1805982651
aI1098618600
aI2241275235
aI1742566624
aI3228016330
aI5126427168
aI3228016330
aI3228016330
aI5126427168
aI3228016330
aI5154200142
aI2891529877
aI2620694653
aI2995631244
aI1764222885
aI5112344529
aI2430259303
aI2709577332
aI2241275235
aI2182038504
aI1618051664
aI2549228714
aI1098618600
aI2241275235
aI3228016330
aI2241275235
aI2970036311
aI2891529877
aI2241275235
aI1644395354
aI2620694653
aI3177527181
aI2241275235
aI5154200142
aI2241275235
aI2709577332
aI3217179555
aI3099016097
aI3228016330
aI3228016330
aI1774662372
aI5154200142
aI1713926427
aI3228016330
aI5154200142
aI3217179555
aI2160982845
aI1742566624
aI3228016330
aI5220839587
aI3948798687
aI2182038504
aI1618051664
aI3229125510
aI5220839587
aI2709577332
aI2140585607
aI3217179555
aI2123664205
aI1098618600
aI1788911247
aI2709577332
aI2709577332
aI5220839587
aI3305085281
aI1409138147
aI1409138147
aI1774662372
aI1618051664
aI2709577332
aI2478838621
aI2709577332
aI2430259303
aI2709577332
aI2144684673
aI2709577332
aI1742566624
aI2478838621
aI3177527181
aI2241275235
aI1644395354
aI2903316485
aI2123664205
aI3177527181
aI1618051664
aI2241275235
aI2241275235
aI1805982651
aI1774662372
aI3948798687
aI2970036311
aI1618051664
aI1788911247
aI1644395354
aI1409138147
aI2709577332
aI2140585607
aI3177527181
aI2144684673
aI2182038504
aI3177527181
aI1742566624
aI2430259303
aI2549228714
aI1618051664
aI3305085281
aI2709577332
aI1764222885
aI3177527181
aI2241275235
aI2970036311
aI1618051664
aI3948798687
aI1618051664
aI5040955225
aI1764222885
aI3305085281
aI1742566624
aI1644395354
aI3177527181
aI1618051664
aI1788911247
aI3177527181
aI1788911247
aI1742566624
aI1618051664
aI3177527181
aI3177527181
aI1788911247
aI3177527181
aI1618051664
aI1742566624
aI3305085281
aI3177527181
aI3177527181
aI1742566624
aI3177527181
aI2549228714
aI3177527181
aI3305085281
aI3177527181
aI3177527181
aI3305085281
aI3177527181
aI3305085281
aI1742566624
aI3177527181
aI1098618600
aI3948798687
aI3177527181
aI3305085281
aI2144684673
aI2241275235
aI2709577332
aI5112344529
aI2123664205
aI2241275235
aI1618051664
aI2709577332
aI1713926427
aI1805982651
aI1896481783
aI2709577332
aI5614959285
aI1742566624
aI1764222885
aI2995631244
aI2430259303
aI2182038504
aI2140585607
aI5112344529
aI1742566624
aI2123664205
aI2995631244
aI1098618600
aI5040955225
aI1618051664
aI3217179555
aI3948798687
aI2891529877
aI2182038504
aI5220839587
aI3177527181
aI5040955225
aI1742566624
aI2709577332
aI1805982651
aI2182038504
aI2970036311
aI1774662372
aI3305085281
aI1644395354
aI3099016097
aI2144684673
aI2430259303
aI2478838621
aI1896481783
aI5220839587
aI1742566624
aI2144684673
aI1805982651
aI2891529877
aI5614959285
aI1736693382
aI2903316485
aI3099016097
aI1952225710
aI2478838621
aI1713926427
aI1618051664
aI2709577332
aI5220839587
aI2709577332
aI3229125510
aI2891529877
aI3217179555
aI2709577332
aI2709577332
aI2709577332
aI2970036311
aI1742566624
aI1098618600
aI2709577332
aI2241275235
aI2182038504
aI3948798687
aI3305085281
aI5154200142
aI2891529877
aI3228016330
aI2144684673
aI1764222885
aI1805982651
aI2182038504
aI2709577332
aI2709577332
aI3099016097
aI2709577332
aI2995631244
aI1788911247
aI1098618600
aI3177527181
aI2430259303
aI2970036311
aI5112344529
aI1713926427
aI1618051664
aI1764222885
aI1618051664
aI2891529877
aI1774662372
aI5154200142
aI1742566624
aI3177527181
aI3228016330
aI2241275235
aI1409138147
aI1742566624
aI2182038504
aI1195054531
aI3217179555
aI1788911247
aI3228016330
aI2241275235
aI5112344529
aI2430259303
aI2241275235
aI3177527181
aI2241275235
aI3099016097
aI2709577332
aI3217179555
aI2123664205
aI1764222885
aI1805982651
aI3228016330
aI1742566624
aI3229125510
aI2995631244
aI2970036311
aI1195054531
aI2182038504
aI5154200142
aI3228016330
aI2891529877
aI3228016330
aI1344386244
aI1644395354
aI1774662372
aI2182038504
aI3217179555
aI2709577332
aI1805982651
aI3228016330
aI2970036311
aI2241275235
aI3305085281
aI3228016330
aI5154200142
aI3229125510
aI3177527181
aI2241275235
aI2241275235
aI1618051664
aI1713926427
aI1742566624
aI1788911247
aI3228016330
aI3228016330
aI3228016330
aI2891529877
aI1774662372
aI1195054531
aI2478838621
aI2241275235
aI3177527181
aI3099016097
aI1764222885
aI1098618600
aI2182038504
aI3305085281
aI1742566624
aI1644395354
aI2970036311
aI2995631244
aI3228016330
aI1344386244
aI3305085281
aI1952225710
aI5112344529
aI3217179555
aI1409138147
aI1644395354
aI1742566624
aI5154200142
aI2430259303
aI3217179555
aI2549228714
aI2123664205
aI1098618600
aI3228016330
aI3099016097
aI2241275235
aI1764222885
aI1742566624
aI1713926427
aI1788911247
aI1409138147
aI1645101450
aI2140585607
aI5040955225
aI2144684673
aI3305085281
aI2430259303
aI2709577332
aI1618051664
aI1644395354
aI1409138147
aI2709577332
aI1764222885
aI1742566624
aI3177527181
aI1713926427
aI5040955225
aI1788911247
aI3948798687
aI1618051664
aI1409138147
aI1098618600
aI1788911247
aI1409138147
aI2430259303
aI1764222885
aI3228016330
aI1742566624
aI3177527181
aI2160982845
aI1409138147
aI1409138147
aI1618051664
aI1409138147
aI1788911247
aI3177527181
aI1098618600
aI1742566624
aI1618051664
aI3177527181
aI1098618600
aI3177527181
aI1409138147
aI1742566624
aI1618051664
aI3177527181
aI1742566624
aI3177527181
aI3177527181
aI3177527181
aI3177527181
aI1742566624
aI3177527181
aI1742566624
aI3177527181
aI1098618600
aI1805982651
aI2182038504
aI1742566624
aI3177527181
aI1790597487
aI2822914093
aI2182038504
aI1805982651
aI2891529877
aI1742566624
aI1618051664
aI2182038504
aI3217179555
aI1713926427
aI3177527181
aI1774662372
aI2123664205
aI1344386244
aI1742566624
aI1618051664
aI1098618600
aI1644395354
aI3228016330
aI5112344529
aI3228016330
aI2182038504
aI1098618600
aI2160982845
aI5154200142
aI5112344529
aI1742566624
aI5220839587
aI3099016097
aI5154200142
aI3228016330
aI2903316485
aI3177527181
aI1618051664
aI2995631244
aI1098618600
aI2970036311
aI1788911247
aI2891529877
aI5220839587
aI1788911247
aI1713926427
aI3948798687
aI2140585607
aI2709577332
aI3229125510
aI3733974545
aI3099016097
aI2995631244
aI1790597487
aI2144684673
aI1742566624
aI2709577332
aI2549228714
aI2478838621
aI2891529877
aI2995631244
aI1790597487
aI1618051664
aI5220839587
aI2430259303
aI1790597487
aI5154200142
aI2709577332
aI3217179555
aI5154200142
aI3228016330
aI2709577332
aI2709577332
aI1098618600
aI5112344529
aI2182038504
aI1764222885
aI3305085281
aI2822914093
aI2709577332
aI1344386244
aI1742566624
aI3229125510
aI2709577332
aI2709577332
aI2430259303
aI2995631244
aI3948798687
aI1644395354
aI2123664205
aI1618051664
aI1098618600
aI2891529877
aI2903316485
aI5220839587
aI3229125510
aI2822914093
aI5154200142
aI2891529877
aI3099016097
aI2709577332
aI5112344529
aI2182038504
aI5154200142
aI5220839587
aI2995631244
aI2182038504
aI1742566624
aI2709577332
aI3099016097
aI3228016330
aI5154200142
aI2430259303
aI1644395354
aI2478838621
aI1952225710
aI3217179555
aI1618051664
aI3099016097
aI3948798687
aI1742566624
aI1805982651
aI5112344529
aI2891529877
aI5154200142
aI1618051664
aI2123664205
aI2709577332
aI3228016330
aI2709577332
aI3099016097
aI5154200142
aI3228016330
aI2709577332
aI2144684673
aI1713926427
aI3228016330
aI1618051664
aI3217179555
aI1742566624
aI3229125510
aI3228016330
aI1788911247
aI2241275235
aI1742566624
aI5154200142
aI3217179555
aI1644395354
aI1742566624
aI3229125510
aI5154200142
aI1790597487
aI3228016330
aI2970036311
aI3177527181
aI3228016330
aI5154200142
aI5220839587
aI1644395354
aI1742566624
aI5040955225
aI2709577332
aI3177527181
aI1774662372
aI1644395354
aI3228016330
aI2709577332
aI5154200142
aI1896481783
aI3229125510
aI3099016097
aI3228016330
aI3228016330
aI2709577332
aI2891529877
aI1788911247
aI2970036311
aI1618051664
aI1764222885
aI2995631244
aI2182038504
aI2891529877
aI2549228714
aI2709577332
aI3217179555
aI2123664205
aI1764222885
aI1742566624
aI1788911247
aI5220839587
aI1645101450
aI2478838621
aI2430259303
aI2549228714
aI3228016330
aI3099016097
aI1645101450
aI2891529877
aI1161133861
aI5112344529
aI2241275235
aI2709577332
aI1774662372
aI1618051664
aI1805982651
aI3228016330
aI3228016330
aI2995631244
aI3099016097
aI2709577332
aI1742566624
aI1409138147
aI3228016330
aI1713926427
aI5220839587
aI3228016330
aI1764222885
aI1774662372
aI3177527181
aI2241275235
aI1896481783
aI1618051664
aI1788911247
aI1742566624
aI2182038504
aI1774662372
aI1409138147
aI2970036311
aI2891529877
aI1896481783
aI3228016330
aI3099016097
aI2241275235
aI2709577332
aI1790597487
aI2241275235
aI3217179555
aI2891529877
aI1161133861
aI2903316485
aI2709577332
aI1764222885
aI1409138147
aI2144684673
aI1742566624
aI1790597487
aI1618051664
aI1896481783
aI2709577332
aI2995631244
aI2182038504
aI1788911247
aI2891529877
aI3948798687
aI3217179555
aI3229125510
aI2995631244
aI2891529877
aI2182038504
aI2709577332
aI1790597487
aI1618051664
aI2144684673
aI2430259303
aI1764222885
aI3099016097
aI1742566624
aI2709577332
aI2995631244
aI1788911247
aI2478838621
aI3177527181
aI3948798687
aI3177527181
aI1618051664
aI1774662372
aI1788911247
aI1742566624
aI1764222885
aI2430259303
aI1644395354
aI1098618600
aI2549228714
aI2160982845
aI2160982845
aI1788911247
aI1618051664
aI2160982845
aI1742566624
aI1764222885
aI3177527181
aI1644395354
aI3228016330
aI3177527181
aI2549228714
aI1409138147
aI2140585607
aI1742566624
aI1618051664
aI3228016330
aI1788911247
aI3177527181
aI2160982845
aI2160982845
aI1742566624
aI1618051664
aI1788911247
aI3177527181
aI1742566624
aI3228016330
aI1742566624
aI3177527181
aI3177527181
aI3228016330
aI3177527181
aI3228016330
aI3228016330
aI3177527181
aI2970036311
aI1713926427
aI1618051664
aI1742566624
aI3228016330
aI1713926427
aI3228016330
aI3177527181
aI3228016330
aI3228016330
aI1344386244
aI1788911247
aI2970036311
aI1618051664
aI5154200142
aI1742566624
aI3099016097
aI3228016330
aI3177527181
aI1618051664
aI1409138147
aI1409138147
aI2241275235
aI2241275235
aI1742566624
aI1409138147
aI3177527181
aI3228016330
aI1618051664
aI2549228714
aI1618051664
aI1742566624
aI3177527181
aI3228016330
aI3177527181
aI1409138147
aI1742566624
aI1618051664
aI3228016330
aI3177527181
aI3177527181
aI3228016330
aI3228016330
aI3177527181
aI2970036311
aI3177527181
aI3177527181
aI3177527181
aI3228016330
aI3177527181
aI1645101450
aI1742566624
aI3228016330
aI1742566624
aI2182038504
aI3177527181
aI3228016330
aI1742566624
aI1344386244
aI3228016330
aI1742566624
aI3228016330
aI2970036311
aI2891529877
aI1618051664
aI5112344529
aI1713926427
aI1742566624
aI5220839587
aI3217179555
aI3228016330
aI3177527181
aI3305085281
aI1098618600
aI3217179555
aI1098618600
aI2549228714
aI1742566624
aI2182038504
aI3229125510
aI2709577332
aI1742566624
aI2182038504
aI3228016330
aI3099016097
aI2430259303
aI1644395354
aI1774662372
aI5154200142
aI1805982651
aI1618051664
aI1742566624
aI2903316485
aI2549228714
aI2709577332
aI1098618600
aI1618051664
aI1896481783
aI5154200142
aI1742566624
aI3217179555
aI2478838621
aI1344386244
aI3228016330
aI2709577332
aI5154200142
aI2891529877
aI3177527181
aI3228016330
aI1764222885
aI3217179555
aI1742566624
aI3228016330
aI2241275235
aI1805982651
aI1644395354
aI3228016330
aI2709577332
aI2241275235
aI2241275235
aI2709577332
aI1713926427
aI2709577332
aI1896481783
aI5154200142
aI1774662372
aI3229125510
aI2478838621
aI2903316485
aI1409138147
aI1344386244
aI2995631244
aI1742566624
aI2903316485
aI3099016097
aI1764222885
aI2182038504
aI5126427168
aI2549228714
aI2123664205
aI1644395354
aI2144684673
aI1742566624
aI1644395354
aI2160982845
aI2241275235
aI3229125510
aI2709577332
aI1409138147
aI2241275235
aI3099016097
aI3305085281
aI2241275235
aI2891529877
aI2430259303
aI2709577332
aI5220839587
aI1409138147
aI2160982845
aI1409138147
aI1409138147
aI2182038504
aI1805982651
aI1618051664
aI2241275235
aI2241275235
aI3305085281
aI1790597487
aI3948798687
aI2241275235
aI2241275235
aI3217179555
aI2241275235
aI3228016330
aI2241275235
aI5154200142
aI2241275235
aI2891529877
aI5126427168
aI1742566624
aI3305085281
aI3228016330
aI2709577332
aI3217179555
aI2995631244
aI3229125510
aI1409138147
aI5112344529
aI2970036311
aI2182038504
aI1788911247
aI3177527181
aI2430259303
aI3177527181
aI1764222885
aI1742566624
aI1805982651
aI1409138147
aI2123664205
aI1645101450
aI2478838621
aI2891529877
aI5220839587
aI2241275235
aI1764222885
aI1805982651
aI1645101450
aI2241275235
aI2241275235
aI1644395354
aI1805982651
aI3099016097
aI2995631244
aI1644395354
aI2709577332
aI3217179555
aI1713926427
aI1774662372
aI1764222885
aI1098618600
aI3228016330
aI5154200142
aI1644395354
aI1344386244
aI1742566624
aI2709577332
aI5220839587
aI2549228714
aI2241275235
aI3305085281
aI3177527181
aI2478838621
aI2182038504
aI1788911247
aI1764222885
aI5154200142
aI1618051664
aI1644395354
aI1344386244
aI1774662372
aI2123664205
aI5126427168
aI1952225710
aI3099016097
aI2182038504
aI3228016330
aI5639849121
aI3217179555
aI1790597487
aI2995631244
aI1344386244
aI2891529877
aI3948798687
aI2549228714
aI2430259303
aI1774662372
aI2995631244
aI3229125510
aI1805982651
aI3305085281
aI2709577332
aI2182038504
aI1764222885
aI1645101450
aI2970036311
aI2478838621
aI3099016097
aI1774662372
aI1742566624
aI2144684673
aI3228016330
aI3228016330
aI1344386244
aI2709577332
aI1952225710
aI3228016330
aI3228016330
aI3228016330
aI1774662372
aI2995631244
aI2430259303
aI2182038504
aI2995631244
aI1850235592
aI2709577332
aI1790597487
aI2709577332
aI5126427168
aI3305085281
aI1805982651
aI3217179555
aI2241275235
aI2970036311
aI2241275235
aI1742566624
aI5614959285
aI2709577332
aI1644395354
aI2903316485
aI2549228714
aI2123664205
aI2182038504
aI2182038504
aI1644395354
aI5220839587
aI2903316485
aI1805982651
aI1618051664
aI3305085281
aI2241275235
aI5154200142
aI2970036311
aI1742566624
aI3228016330
aI3228016330
aI1344386244
aI3177527181
aI1644395354
aI5154200142
aI2709577332
aI3228016330
aI1742566624
aI3217179555
aI3228016330
aI5112344529
aI1742566624
aI1764222885
aI2709577332
aI2891529877
aI3228016330
aI3228016330
aI1896481783
aI3305085281
aI1713926427
aI2970036311
aI3099016097
aI5154200142
aI3228016330
aI1409138147
aI1764222885
aI1618051664
aI1805982651
aI3177527181
aI5126427168
aI1774662372
aI3217179555
aI2891529877
aI2430259303
aI3099016097
aI5126427168
aI1742566624
aI2709577332
aI3228016330
aI5154200142
aI2123664205
aI3228016330
aI3305085281
aI3229125510
aI3217179555
aI3228016330
aI5126427168
aI1742566624
aI5220839587
aI3099016097
aI3228016330
aI3305085281
aI3228016330
aI3228016330
aI1644395354
aI2891529877
aI1850235592
aI2709577332
aI2709577332
aI1790597487
aI1344386244
aI3217179555
aI5154200142
aI2995631244
aI3217179555
aI1713926427
aI3099016097
aI2995631244
aI1790597487
aI3228016330
aI2709577332
aI5154200142
aI2709577332
aI3228016330
aI1742566624
aI1618051664
aI2891529877
aI2430259303
aI3229125510
aI1764222885
aI3305085281
aI3177527181
aI5154200142
aI2123664205
aI3228016330
aI1805982651
aI2430259303
aI2182038504
aI1644395354
aI1790597487
aI1742566624
aI2709577332
aI2549228714
aI5154200142
aI3228016330
aI2891529877
asS'likeNo'
p7
(lp8
I677
aI1233
aI551
aI1337
aI319
aI0
aI515
aI8769
aI3473
aI878
aI1670
aI7674
aI2948
aI474
aI1090
aI1724
aI252
aI220
aI1763
aI2357
aI1408
aI415
aI1400
aI4429
aI5661
aI166
aI11145
aI455
aI294
aI769
aI1247
aI1340
aI4168
aI382
aI0
aI0
aI0
aI0
aI0
aI2705
aI942
aI2447
aI2454
aI22020
aI300
aI514
aI350
aI6929
aI5181
aI561
aI2044
aI8126
aI2881
aI657
aI550
aI808
aI10574
aI0
aI1
aI0
aI0
aI0
aI0
aI0
aI634
aI1626
aI513
aI2412
aI1543
aI432
aI604
aI16149
aI8397
aI4146
aI4091
aI394
aI23922
aI642
aI2401
aI505
aI46321
aI2045
aI720
aI1041
aI5335
aI13744
aI4579
aI22395
aI3636
aI516
aI1560
aI1840
aI2526
aI1593
aI506
aI867
aI1511
aI695
aI1396
aI6758
aI1556
aI1924
aI1472
aI2422
aI2620
aI122
aI2334
aI1755
aI5287
aI469
aI674
aI34575
aI2438
aI415
aI981
aI814
aI829
aI697
aI17977
aI519
aI2275
aI1612
aI1538
aI4380
aI1169
aI2188
aI3662
aI639
aI479
aI289
aI276
aI382
aI1043
aI1403
aI2894
aI1
aI2687
aI9752
aI5006
aI463
aI1
aI451
aI5862
aI1607
aI1006
aI501
aI180
aI2326
aI8625
aI3172
aI22367
aI2689
aI705
aI780
aI363
aI1654
aI111
aI1643
aI373
aI134
aI1164
aI42326
aI657
aI4384
aI3162
aI7738
aI2027
aI100
aI253
aI968
aI143
aI678
aI3981
aI737
aI1327
aI35
aI589
aI242
aI2023
aI781
aI16647
aI2748
aI333
aI476
aI356
aI2264
aI1583
aI396
aI583
aI358
aI1983
aI407
aI820
aI2676
aI1095
aI102
aI1262
aI1454
aI732
aI89
aI2718
aI612
aI389
aI266
aI559
aI2359
aI23
aI452
aI1867
aI516
aI723
aI5529
aI13
aI66
aI779
aI98
aI333
aI3028
aI3040
aI756
aI59
aI198
aI99
aI1362
aI667
aI150
aI3444
aI149
aI348
aI63
aI453
aI124
aI329
aI10259
aI7669
aI354
aI1509
aI5372
aI336
aI32607
aI268
aI79
aI17888
aI0
aI13551
aI404
aI1337
aI64
aI1901
aI999
aI1132
aI219
aI11125
aI46
aI1199
aI371
aI680
aI739
aI0
aI190
aI534
aI332
aI0
aI0
aI2372
aI126
aI217
aI1248
aI309
aI1803
aI109
aI1110
aI604
aI3525
aI2039
aI272
aI345
aI3447
aI543
aI208
aI115
aI643
aI332
aI34
aI2782
aI1106
aI104
aI1400
aI490
aI420
aI1387
aI0
aI224
aI27
aI357
aI1575
aI228
aI1192
aI3921
aI1938
aI2765
aI200
aI2097
aI460
aI2780
aI255
aI69
aI446
aI277
aI108
aI1124
aI137
aI1049
aI3659
aI9308
aI3071
aI399
aI527
aI408
aI282
aI556
aI7137
aI583
aI874
aI413
aI475
aI688
aI648
aI10774
aI3485
aI291
aI59
aI7225
aI303
aI754
aI97
aI9511
aI294
aI347
aI2612
aI344
aI4368
aI3103
aI299
aI507
aI77
aI46
aI274
aI820
aI29
aI1743
aI13
aI97
aI38
aI570
aI41
aI2246
aI3301
aI249
aI193
aI456
aI2461
aI5831
aI119
aI208
aI95295
aI15
aI13
aI372
aI99
aI1351
aI705
aI448
aI618
aI9327
aI99
aI2243
aI261
aI756
aI830
aI146
aI5051
aI531
aI1200
aI1370
aI895
aI3303
aI3414
aI4015
aI10067
aI1339
aI339
aI652
aI2641
aI448
aI10304
aI1909
aI1228
aI1348
aI149
aI1258
aI160
aI2226
aI82
aI286
aI15293
aI261
aI427
aI1136
aI247
aI2428
aI766
aI8948
aI272
aI329
aI227
aI951
aI4785
aI62
aI71
aI110
aI2319
aI99
aI3380
aI353
aI1584
aI572
aI1207
aI10896
aI21221
aI760
aI294
aI163
aI11742
aI141
aI884
aI378
aI649
aI298
aI311
aI687
aI3
aI15592
aI543
aI1258
aI811
aI1141
aI7800
aI12
aI1322
aI614
aI18
aI183
aI0
aI1018
aI642
aI5015
aI7418
aI2767
aI420
aI155
aI2
aI1395
aI259
aI83
aI74
aI2019
aI642
aI8630
aI518
aI4157
aI2746
aI953
aI3738
aI1555
aI344
aI1984
aI1946
aI986
aI130
aI700
aI2348
aI677
aI582
aI1887
aI2136
aI1711
aI4368
aI437
aI725
aI539
aI565
aI145
aI1337
aI451
aI212
aI586
aI39
aI261
aI43
aI2437
aI15013
aI11462
aI418
aI3300
aI632
aI427
aI511
aI93
aI4236
aI629
aI265
aI275
aI3239
aI2549
aI579
aI736
aI1486
aI1144
aI474
aI402
aI621
aI28
aI1012
aI2150
aI435
aI6
aI10959
aI0
aI768
aI1231
aI13
aI330
aI12319
aI3305
aI497
aI620
aI1074
aI3133
aI141
aI3284
aI1465
aI19670
aI655
aI0
aI87
aI98
aI948
aI1454
aI2164
aI635
aI165
aI207
aI4485
aI0
aI274
aI6124
aI4895
aI248
aI21243
aI133
aI2171
aI88
aI281
aI0
aI1429
aI402
aI0
aI4991
aI801
aI18
aI4956
aI281
aI0
aI0
aI0
aI935
aI0
aI794
aI240
aI913
aI6589
aI318
aI2750
aI530
aI875
aI0
aI25715
aI441
aI343
aI12968
aI728
aI781
aI342
aI74
aI3885
aI196
aI500
aI184
aI21304
aI133
aI2172
aI88
aI281
aI0
aI1431
aI402
aI0
aI4993
aI802
aI18
aI4955
aI281
aI0
aI0
aI0
aI936
aI0
aI794
aI240
aI914
aI6586
aI318
aI2749
aI530
aI875
aI0
aI25717
aI441
aI343
aI12972
aI728
aI782
aI342
aI74
aI3883
aI196
aI498
aI184
aI1489
aI926
aI1341
aI7186
aI346
aI601
aI274
aI1712
aI2722
aI1396
aI10554
aI361
aI3569
aI41951
aI30779
aI257
aI2393
aI379
aI582
aI1012
aI450
aI899
aI3422
aI1084
aI10
aI257
aI1065
aI848
aI1
aI161
aI11
aI7920
aI1396
aI2075
aI733
aI1106
aI189
aI664
aI371
aI978
aI703
aI215
aI481
aI1668
aI2804
aI499
aI44345
aI92
aI173
aI365
aI1721
aI17
aI3256
aI615
aI266
aI3129
aI5774
aI683
aI2686
aI1042
aI1683
aI699
aI384
aI805
aI1215
aI824
aI630
aI156
aI389
aI3095
aI209
aI404
aI231
aI270
aI1322
aI8
aI1312
aI5884
aI3106
aI51
aI471
aI367
aI6221
aI1840
aI333
aI707
aI324
aI279
aI111
aI3658
aI731
aI289
aI1021
aI2687
aI177
aI1316
aI10395
aI1261
aI846
aI22061
aI5665
aI4532
aI343
aI673
aI472
aI4165
aI16
aI11719
aI2612
aI2491
aI2903
aI157
aI610
aI1341
aI2715
aI213
aI1039
aI167
aI321
aI1762
aI9859
aI225
aI267
aI317
aI2054
aI1156
aI297
aI439
aI201
aI646
aI2322
aI4450
aI422
aI1006
aI1024
aI1231
aI522
aI1880
aI456
aI1726
aI622
aI1752
aI1571
aI4520
aI262
aI6008
aI872
aI1886
aI2907
aI500
aI1519
aI180
aI772
aI1117
aI634
aI549
aI2040
aI275
aI1207
aI951
aI7
aI345
aI251
aI2730
aI945
aI4429
aI1813
aI641
aI828
aI3427
aI658
aI14491
aI0
aI165
aI29630
aI1157
aI687
aI5895
aI606
aI334
aI327
aI632
aI509
aI805
aI2494
aI940
aI1300
aI0
aI2520
aI1586
aI141
aI542
aI2698
aI23
aI81
aI9
aI25
aI2295
aI527
aI165
aI68
aI221
aI526
aI0
aI1178
aI3040
aI87
aI278
aI228
aI490
aI170
aI1046
aI377
aI1394
aI45
aI3456
aI1445
aI70
aI1517
aI2175
aI310
aI113
aI854
aI895
aI2945
aI3381
aI4906
aI3319
aI632
aI103
aI1183
aI881
aI888
aI67
aI253
aI585
aI3012
aI917
aI4091
aI5143
aI776
aI1348
aI551
aI2247
aI0
aI0
aI469
aI1476
aI0
aI4400
aI1346
aI309
aI2662
aI1565
aI705
aI2826
aI0
aI194
aI8391
aI6409
aI1394
aI573
aI511
aI0
aI0
aI4767
aI1878
aI1722
aI513
aI3359
aI1426
aI3482
aI477
aI405
aI1156
aI303
aI1155
aI642
aI509
aI2141
aI13122
aI908
aI2946
aI1031
aI53880
aI955
aI232
aI125
aI1137
aI854
aI1061
aI1411
aI119
aI1
aI643
aI914
aI91
aI56
aI227
aI0
aI0
aI55
aI60
aI2477
aI0
aI137
aI251
aI1566
aI561
aI905
aI1983
aI186
aI491
aI50
aI0
aI4700
aI201
aI396
aI180
aI142
aI608
aI312
aI205
aI750
aI281
aI493
aI77
aI663
aI160
aI38
aI303
aI850
aI2807
aI583
aI230
aI354
aI1544
aI478
aI456
aI3748
aI300
aI2031
aI565
aI575
aI17
aI6295
aI3714
aI1840
aI24526
aI790
aI337
aI2355
aI774
aI3241
aI739
aI2348
aI1751
aI1285
aI1183
aI353
aI1981
aI1123
aI677
aI1321
aI525
aI1015
aI2263
aI116
aI1119
aI418
aI3248
aI71
aI2357
aI399
aI678
aI711
aI926
aI411
aI13366
aI5650
aI586
aI1691
aI568
aI512
aI266
aI4963
aI252
aI687
aI662
aI188
aI70
aI7
aI4
aI16
aI23
aI8
aI22
aI5
aI8
aI33
aI1523
aI31
aI38
aI25
aI7
aI92
aI30
aI8
aI0
aI51
aI52
aI186
aI18
aI1077
aI144
aI119
aI107
aI447
aI619
aI147
aI99
aI1304
aI464
aI0
aI115
aI546
aI142
aI0
aI51
aI122
aI847
aI22
aI952
aI495
aI131
aI383
aI0
aI0
aI0
aI1
aI336
aI497
aI623
aI41
aI42
aI434
aI74
aI29
aI91
aI37
aI3797
aI60
aI103
aI79
aI73
aI25
aI268
aI185
aI6863
aI526
aI253
aI179
aI340
aI49
aI219
aI0
aI1
aI985
aI161
aI398
aI273
aI398
aI92
aI809
aI2169
aI963
aI0
aI276
aI42
aI443
aI117
aI403
aI71
aI838
aI60
aI183
aI50
aI43
aI1415
aI330
aI984
aI53
aI610
aI63
aI833
aI2753
aI654
aI408
aI167
aI26
aI20
aI215
aI114
aI1619
aI198
aI284
aI42
aI51
aI414
aI53
aI118
aI412
aI285
aI1077
aI105
aI587
aI204
aI90
aI214
aI200
aI610
aI63
aI274
aI393
aI235
aI60
aI2048
aI54
aI155
aI147
aI2259
aI33
aI1319
aI115
aI102
aI170
aI3183
aI836
aI889
aI171
aI204
aI1376
aI54
aI721
aI476
aI1780
aI545
aI1417
aI844
aI117
aI278
aI244
aI231
aI77
aI137
aI155
aI235
aI45
aI73
aI270
aI388
aI215
aI337
aI130
aI145
aI230
aI162
aI236
aI172
aI4687
aI32
aI185
aI59
aI2352
aI110
aI360
aI465
aI89
aI665
aI143
aI768
aI129
aI537
aI929
aI29
aI1023
aI425
aI1242
aI41
aI87
aI760
aI2963
aI133
aI49
aI258
aI127
aI498
aI333
aI363
aI652
aI716
aI8349
aI252
aI3
aI6808
aI598
aI689
aI581
aI677
aI325
aI323
aI1278
aI5750
aI678
aI2305
aI10
aI25
aI0
aI1399
aI610
aI1007
aI180
aI374
aI1305
aI3139
aI1166
aI204
aI967
aI1091
aI1403
aI250
aI152
aI53
aI190
aI776
aI2032
aI1541
aI3044
aI415
aI58
aI2546
aI700
aI3266
aI727
aI351
aI334
aI352
aI3774
aI455
aI85
aI464
aI225
aI51
aI611
aI4497
aI178
aI179
aI3894
aI12610
aI300
aI401
aI152
aI140
aI1038
aI147
aI440
aI1241
aI4920
aI271
aI87
aI52
aI92
aI4363
aI1087
aI261
aI60
aI175
aI83
aI624
aI660
aI625
aI515
aI23
aI1283
aI154
aI4213
aI127
aI163
aI1186
asS'commentNo'
p9
(lp10
I430
aI168
aI81
aI562
aI22
aI0
aI177
aI4356
aI587
aI584
aI269
aI407
aI461
aI190
aI243
aI566
aI1015
aI163
aI573
aI288
aI845
aI192
aI289
aI2720
aI819
aI1115
aI4444
aI1021
aI22
aI170
aI224
aI513
aI272
aI70
aI0
aI0
aI0
aI0
aI0
aI809
aI287
aI370
aI1460
aI1462
aI498
aI448
aI144
aI363
aI1344
aI964
aI2941
aI339
aI197
aI420
aI1458
aI196
aI454
aI0
aI0
aI0
aI0
aI0
aI0
aI0
aI1809
aI329
aI1471
aI1989
aI902
aI1355
aI138
aI1272
aI628
aI314
aI1639
aI170
aI7662
aI427
aI5648
aI883
aI21476
aI265
aI4269
aI316
aI467
aI20974
aI990
aI1722
aI1581
aI855
aI202
aI763
aI852
aI4865
aI35
aI255
aI195
aI119
aI102
aI2390
aI481
aI1029
aI314
aI668
aI191
aI287
aI379
aI248
aI1485
aI71
aI64
aI7245
aI264
aI26
aI123
aI2245
aI258
aI31
aI773
aI140
aI466
aI1999
aI175
aI345
aI1827
aI344
aI662
aI150
aI214
aI10
aI53
aI25
aI152
aI138
aI876
aI0
aI336
aI340
aI581
aI39
aI0
aI424
aI295
aI160
aI389
aI343
aI32
aI1209
aI3226
aI239
aI5855
aI996
aI2311
aI215
aI104
aI574
aI7
aI214
aI32
aI3
aI523
aI12502
aI117
aI551
aI1656
aI435
aI1254
aI8
aI6
aI359
aI5
aI124
aI706
aI62
aI178
aI0
aI3830
aI561
aI4990
aI97
aI1440
aI212
aI84
aI134
aI107
aI938
aI174
aI1133
aI1306
aI1678
aI679
aI55
aI880
aI191
aI253
aI30
aI235
aI570
aI143
aI4
aI457
aI111
aI101
aI5
aI102
aI1395
aI3
aI131
aI216
aI114
aI509
aI3319
aI6
aI100
aI84
aI15
aI118
aI1871
aI1427
aI38
aI1
aI87
aI11
aI156
aI99
aI14
aI1426
aI23
aI1318
aI17
aI229
aI43
aI38
aI2671
aI1878
aI338
aI1372
aI587
aI544
aI8504
aI135
aI23
aI3206
aI0
aI4611
aI289
aI547
aI308
aI547
aI3617
aI500
aI145
aI714
aI35
aI663
aI191
aI85
aI657
aI0
aI155
aI152
aI275
aI0
aI0
aI758
aI28
aI138
aI513
aI134
aI839
aI111
aI711
aI370
aI252
aI673
aI1233
aI265
aI1615
aI142
aI49
aI33
aI2169
aI43
aI18
aI1129
aI223
aI444
aI574
aI241
aI306
aI215
aI0
aI50
aI8
aI868
aI332
aI137
aI155
aI418
aI784
aI701
aI241
aI447
aI176
aI353
aI498
aI19
aI122
aI1162
aI551
aI532
aI152
aI5160
aI712
aI1873
aI694
aI840
aI544
aI107
aI340
aI244
aI626
aI652
aI89
aI1806
aI130
aI210
aI1228
aI880
aI567
aI789
aI5
aI222
aI1183
aI131
aI13
aI2009
aI1116
aI474
aI269
aI405
aI265
aI223
aI847
aI602
aI83
aI4
aI51
aI752
aI17
aI173
aI1
aI24
aI21
aI387
aI8
aI356
aI612
aI25
aI213
aI515
aI149
aI2911
aI85
aI1114
aI57556
aI24
aI1
aI71
aI23
aI192
aI484
aI193
aI693
aI2028
aI436
aI458
aI45
aI86
aI177
aI126
aI263
aI174
aI214
aI427
aI110
aI1186
aI1898
aI1742
aI1041
aI741
aI1865
aI171
aI1423
aI60
aI2342
aI1026
aI454
aI721
aI7
aI194
aI18
aI573
aI56
aI253
aI2876
aI513
aI230
aI211
aI165
aI1246
aI218
aI1856
aI52
aI47
aI295
aI257
aI503
aI82
aI171
aI26
aI1207
aI623
aI616
aI100
aI553
aI113
aI126
aI1260
aI7745
aI157
aI45
aI216
aI743
aI517
aI127
aI238
aI191
aI1398
aI2074
aI77
aI2
aI3107
aI1649
aI90
aI903
aI118
aI2777
aI1
aI754
aI933
aI0
aI13
aI0
aI426
aI246
aI2270
aI921
aI1128
aI125
aI5
aI1
aI305
aI17
aI14
aI24
aI207
aI31
aI1803
aI179
aI2419
aI495
aI614
aI636
aI1519
aI156
aI335
aI722
aI249
aI2
aI170
aI348
aI196
aI207
aI1403
aI296
aI271
aI919
aI64
aI149
aI19
aI102
aI42
aI143
aI181
aI65
aI193
aI10
aI59
aI31
aI6404
aI4096
aI1564
aI91
aI916
aI31
aI102
aI255
aI2
aI2282
aI791
aI50
aI663
aI724
aI278
aI69
aI550
aI232
aI280
aI111
aI74
aI41
aI1
aI181
aI593
aI363
aI1
aI1666
aI0
aI201
aI8967
aI3
aI108
aI1847
aI963
aI188
aI43
aI70
aI750
aI10
aI279
aI71
aI1981
aI100
aI0
aI148
aI74
aI70
aI793
aI668
aI824
aI35
aI72
aI1890
aI0
aI105
aI2984
aI667
aI615
aI4011
aI136
aI441
aI414
aI92
aI0
aI583
aI733
aI0
aI1445
aI1312
aI4
aI1231
aI1581
aI0
aI0
aI0
aI1139
aI0
aI305
aI503
aI296
aI1099
aI476
aI3397
aI240
aI106
aI0
aI5857
aI336
aI1086
aI615
aI1024
aI1512
aI813
aI3
aI328
aI406
aI78
aI870
aI4020
aI136
aI441
aI414
aI92
aI0
aI583
aI733
aI0
aI1445
aI1312
aI4
aI1232
aI1578
aI0
aI0
aI0
aI1140
aI0
aI306
aI503
aI296
aI1101
aI476
aI3396
aI240
aI106
aI0
aI5857
aI336
aI1086
aI615
aI1024
aI1512
aI813
aI3
aI328
aI406
aI78
aI871
aI341
aI80
aI922
aI575
aI919
aI290
aI173
aI150
aI372
aI870
aI505
aI352
aI682
aI5709
aI66319
aI2090
aI416
aI641
aI65
aI288
aI485
aI603
aI530
aI318
aI4
aI561
aI2396
aI248
aI0
aI504
aI8
aI391
aI7640
aI3904
aI451
aI397
aI10
aI336
aI278
aI382
aI227
aI26
aI411
aI207
aI330
aI781
aI4415
aI461
aI155
aI72
aI539
aI11
aI421
aI434
aI39
aI2372
aI316
aI204
aI438
aI120
aI289
aI78
aI58
aI1289
aI217
aI126
aI87
aI334
aI206
aI413
aI42
aI61
aI12
aI202
aI211
aI0
aI341
aI756
aI969
aI15
aI177
aI60
aI1271
aI280
aI29
aI326
aI559
aI595
aI352
aI385
aI99
aI7
aI488
aI1088
aI5
aI481
aI15694
aI259
aI799
aI1668
aI652
aI1529
aI383
aI261
aI71
aI273
aI1
aI1433
aI263
aI131
aI673
aI50
aI140
aI87
aI592
aI42
aI86
aI491
aI55
aI347
aI1434
aI130
aI25
aI793
aI274
aI92
aI16
aI141
aI41
aI57
aI1830
aI542
aI70
aI124
aI140
aI547
aI1618
aI312
aI87
aI121
aI84
aI364
aI587
aI1100
aI89
aI1298
aI317
aI349
aI198
aI99
aI151
aI78
aI315
aI180
aI47
aI105
aI427
aI231
aI209
aI106
aI2
aI41
aI72
aI613
aI1137
aI848
aI197
aI98
aI188
aI928
aI82
aI4714
aI0
aI91
aI6531
aI3817
aI278
aI545
aI56
aI855
aI226
aI849
aI409
aI253
aI314
aI572
aI125
aI2
aI221
aI260
aI124
aI339
aI309
aI3
aI9
aI2
aI1
aI266
aI53
aI220
aI35
aI46
aI243
aI0
aI195
aI133
aI50
aI148
aI16
aI164
aI62
aI88
aI549
aI304
aI182
aI423
aI197
aI13
aI165
aI1815
aI212
aI226
aI2360
aI276
aI1705
aI415
aI374
aI1061
aI551
aI478
aI429
aI129
aI436
aI308
aI395
aI629
aI890
aI226
aI302
aI1540
aI244
aI249
aI158
aI1559
aI0
aI0
aI111
aI1570
aI0
aI247
aI2885
aI1120
aI1665
aI258
aI464
aI562
aI0
aI163
aI420
aI6428
aI170
aI1172
aI795
aI0
aI0
aI153
aI5447
aI2395
aI1163
aI155
aI128
aI538
aI359
aI532
aI161
aI954
aI86
aI183
aI849
aI3609
aI6084
aI592
aI173
aI137
aI8416
aI375
aI745
aI9
aI105
aI787
aI506
aI551
aI145
aI0
aI43
aI193
aI27
aI485
aI140
aI0
aI0
aI25
aI3
aI255
aI0
aI628
aI33
aI2212
aI83
aI1288
aI180
aI554
aI34
aI3
aI0
aI268
aI40
aI65
aI517
aI314
aI37
aI40
aI393
aI171
aI202
aI133
aI25
aI134
aI315
aI281
aI260
aI122
aI173
aI264
aI1887
aI53
aI946
aI135
aI114
aI1505
aI22
aI443
aI419
aI660
aI5
aI9192
aI341
aI2713
aI2256
aI291
aI976
aI1335
aI101
aI2223
aI191
aI417
aI725
aI259
aI1244
aI302
aI103
aI670
aI56
aI1193
aI590
aI536
aI597
aI1033
aI1335
aI132
aI254
aI10
aI906
aI353
aI314
aI769
aI342
aI41
aI3712
aI1572
aI255
aI333
aI54
aI666
aI275
aI11057
aI842
aI80
aI1297
aI153
aI6
aI5
aI1
aI7
aI0
aI2
aI9
aI1
aI0
aI11
aI1017
aI34
aI7
aI73
aI0
aI98
aI2
aI1
aI0
aI25
aI6
aI54
aI1
aI147
aI46
aI14
aI39
aI160
aI147
aI47
aI16
aI123
aI98
aI0
aI58
aI290
aI42
aI0
aI11
aI141
aI53
aI3
aI367
aI144
aI14
aI82
aI0
aI0
aI0
aI0
aI135
aI144
aI748
aI16
aI8
aI62
aI4
aI217
aI3
aI30
aI1577
aI21
aI121
aI17
aI22
aI4
aI8
aI633
aI1030
aI73
aI171
aI24
aI95
aI134
aI4
aI0
aI0
aI635
aI44
aI246
aI77
aI103
aI41
aI476
aI183
aI186
aI0
aI91
aI35
aI48
aI31
aI63
aI14
aI148
aI7
aI346
aI35
aI10
aI424
aI165
aI400
aI13
aI90
aI9
aI267
aI603
aI84
aI119
aI82
aI10
aI22
aI89
aI36
aI143
aI73
aI130
aI23
aI19
aI62
aI356
aI16
aI80
aI96
aI111
aI6
aI1181
aI18
aI11
aI52
aI49
aI242
aI10
aI20
aI180
aI27
aI44
aI291
aI23
aI46
aI23
aI322
aI178
aI271
aI341
aI14
aI20
aI557
aI344
aI249
aI62
aI87
aI500
aI6
aI95
aI540
aI247
aI62
aI87
aI232
aI126
aI24
aI90
aI79
aI9
aI51
aI16
aI91
aI1
aI3
aI68
aI221
aI31
aI52
aI34
aI18
aI20
aI35
aI146
aI25
aI966
aI22
aI19
aI7
aI209
aI37
aI192
aI375
aI34
aI110
aI32
aI369
aI11
aI187
aI138
aI6
aI183
aI521
aI60
aI5
aI313
aI120
aI528
aI83
aI10
aI264
aI472
aI23
aI52
aI24
aI66
aI304
aI1625
aI247
aI0
aI332
aI1830
aI182
aI57
aI98
aI8
aI15
aI874
aI2076
aI1178
aI682
aI1
aI0
aI0
aI77
aI297
aI280
aI90
aI176
aI256
aI1256
aI84
aI612
aI80
aI128
aI128
aI19
aI5
aI2
aI101
aI195
aI296
aI281
aI414
aI80
aI6
aI270
aI119
aI703
aI37
aI39
aI18
aI17
aI6357
aI59
aI39
aI258
aI141
aI7
aI183
aI1115
aI29
aI321
aI808
aI5551
aI33
aI713
aI24
aI34
aI1176
aI120
aI442
aI174
aI586
aI146
aI7
aI6
aI7
aI7238
aI126
aI1601
aI3
aI86
aI3
aI1408
aI99
aI218
aI15
aI0
aI55
aI132
aI514
aI27
aI18
aI566
asS'isRetweet'
p11
(lp12
I00
aI00
aI00
aI00
aI00
aI00
aI00
aI00
aI00
aI00
aI00
aI00
aI00
aI00
aI00
aI00
aI00
aI00
aI00
aI00
aI00
aI00
aI00
aI00
aI00
aI00
aI00
aI00
aI00
aI00
aI00
aI00
aI00
aI00
aI00
aI00
aI00
aI00
aI00
aI00
aI00
aI00
aI00
aI00
aI00
aI00
aI00
aI00
aI00
aI00
aI00
aI00
aI00
aI00
aI00
aI00
aI00
aI00
aI00
aI00
aI00
aI00
aI00
aI00
aI00
aI00
aI00
aI00
aI00
aI00
aI00
aI00
aI00
aI00
aI00
aI00
aI00
aI00
aI00
aI00
aI00
aI00
aI00
aI00
aI00
aI00
aI00
aI00
aI00
aI00
aI00
aI00
aI00
aI00
aI00
aI00
aI00
aI00
aI00
aI00
aI00
aI00
aI00
aI00
aI00
aI00
aI00
aI00
aI00
aI00
aI00
aI00
aI00
aI00
aI00
aI00
aI00
aI00
aI00
aI00
aI00
aI00
aI00
aI00
aI00
aI00
aI00
aI00
aI00
aI00
aI00
aI00
aI00
aI00
aI00
aI00
aI00
aI00
aI00
aI00
aI00
aI00
aI00
aI00
aI00
aI00
aI00
aI00
aI00
aI00
aI00
aI00
aI00
aI00
aI00
aI00
aI00
aI00
aI00
aI00
aI00
aI00
aI00
aI00
aI00
aI00
aI00
aI00
aI00
aI00
aI00
aI00
aI00
aI00
aI00
aI00
aI00
aI00
aI00
aI00
aI00
aI00
aI00
aI00
aI00
aI00
aI00
aI00
aI00
aI00
aI00
aI00
aI00
aI00
aI00
aI00
aI00
aI00
aI00
aI00
aI00
aI00
aI00
aI00
aI00
aI00
aI00
aI00
aI00
aI00
aI00
aI00
aI00
aI00
aI00
aI00
aI00
aI00
aI00
aI00
aI00
aI00
aI00
aI00
aI00
aI00
aI00
aI00
aI00
aI00
aI00
aI00
aI00
aI00
aI00
aI00
aI00
aI00
aI00
aI00
aI00
aI00
aI00
aI00
aI00
aI00
aI00
aI00
aI00
aI00
aI00
aI00
aI00
aI00
aI00
aI00
aI00
aI00
aI00
aI00
aI00
aI00
aI00
aI00
aI00
aI00
aI00
aI00
aI00
aI00
aI00
aI00
aI00
aI00
aI00
aI00
aI00
aI00
aI00
aI00
aI00
aI00
aI00
aI00
aI00
aI00
aI00
aI00
aI00
aI00
aI00
aI00
aI00
aI00
aI00
aI00
aI00
aI00
aI00
aI00
aI00
aI00
aI00
aI00
aI00
aI00
aI00
aI00
aI00
aI00
aI00
aI00
aI00
aI00
aI00
aI00
aI00
aI00
aI00
aI00
aI00
aI00
aI00
aI00
aI00
aI00
aI00
aI00
aI00
aI00
aI00
aI00
aI00
aI00
aI00
aI00
aI00
aI00
aI00
aI00
aI00
aI00
aI00
aI00
aI00
aI00
aI00
aI00
aI00
aI00
aI00
aI00
aI00
aI00
aI00
aI00
aI00
aI00
aI00
aI00
aI00
aI00
aI00
aI00
aI00
aI00
aI00
aI00
aI00
aI00
aI00
aI00
aI00
aI00
aI00
aI00
aI00
aI00
aI00
aI00
aI00
aI00
aI00
aI00
aI00
aI00
aI00
aI00
aI00
aI00
aI00
aI00
aI00
aI00
aI00
aI00
aI00
aI00
aI00
aI00
aI00
aI00
aI00
aI00
aI00
aI00
aI00
aI00
aI00
aI00
aI00
aI00
aI00
aI00
aI00
aI00
aI00
aI00
aI00
aI00
aI00
aI00
aI00
aI00
aI00
aI00
aI00
aI00
aI00
aI00
aI00
aI00
aI00
aI00
aI00
aI00
aI00
aI00
aI00
aI00
aI00
aI00
aI00
aI00
aI00
aI00
aI00
aI00
aI00
aI00
aI00
aI00
aI00
aI00
aI00
aI00
aI00
aI00
aI00
aI00
aI00
aI00
aI00
aI00
aI00
aI00
aI00
aI00
aI00
aI00
aI00
aI00
aI00
aI00
aI00
aI00
aI00
aI00
aI00
aI00
aI00
aI00
aI00
aI00
aI00
aI00
aI00
aI00
aI00
aI00
aI00
aI00
aI00
aI00
aI00
aI00
aI00
aI00
aI00
aI00
aI00
aI00
aI00
aI00
aI00
aI00
aI00
aI00
aI00
aI00
aI00
aI00
aI00
aI00
aI00
aI00
aI00
aI00
aI00
aI00
aI00
aI00
aI00
aI00
aI00
aI00
aI00
aI00
aI00
aI00
aI00
aI00
aI00
aI00
aI00
aI00
aI00
aI00
aI00
aI00
aI00
aI00
aI00
aI00
aI00
aI00
aI00
aI00
aI00
aI00
aI00
aI00
aI00
aI00
aI00
aI00
aI00
aI00
aI00
aI00
aI00
aI00
aI00
aI00
aI00
aI00
aI00
aI00
aI00
aI00
aI00
aI00
aI00
aI00
aI00
aI00
aI00
aI00
aI00
aI00
aI00
aI00
aI00
aI00
aI00
aI00
aI00
aI00
aI00
aI00
aI00
aI00
aI00
aI00
aI00
aI00
aI00
aI00
aI00
aI00
aI00
aI00
aI00
aI00
aI00
aI00
aI00
aI00
aI00
aI00
aI00
aI00
aI00
aI00
aI00
aI00
aI00
aI00
aI00
aI00
aI00
aI00
aI00
aI00
aI00
aI00
aI00
aI00
aI00
aI00
aI00
aI00
aI00
aI00
aI00
aI00
aI00
aI00
aI00
aI00
aI00
aI00
aI00
aI00
aI00
aI00
aI00
aI00
aI00
aI00
aI00
aI00
aI00
aI00
aI00
aI00
aI00
aI00
aI00
aI00
aI00
aI00
aI00
aI00
aI00
aI00
aI00
aI00
aI00
aI00
aI00
aI00
aI00
aI00
aI00
aI00
aI00
aI00
aI00
aI00
aI00
aI00
aI00
aI00
aI00
aI00
aI00
aI00
aI00
aI00
aI00
aI00
aI00
aI00
aI00
aI00
aI00
aI00
aI00
aI00
aI00
aI00
aI00
aI00
aI00
aI00
aI00
aI00
aI00
aI00
aI00
aI00
aI00
aI00
aI00
aI00
aI00
aI00
aI00
aI00
aI00
aI00
aI00
aI00
aI00
aI00
aI00
aI00
aI00
aI00
aI00
aI00
aI00
aI00
aI00
aI00
aI00
aI00
aI00
aI00
aI00
aI00
aI00
aI00
aI00
aI00
aI00
aI00
aI00
aI00
aI00
aI00
aI00
aI00
aI00
aI00
aI00
aI00
aI00
aI00
aI00
aI00
aI00
aI00
aI00
aI00
aI00
aI00
aI00
aI00
aI00
aI00
aI00
aI00
aI00
aI00
aI00
aI00
aI00
aI00
aI00
aI00
aI00
aI00
aI00
aI00
aI00
aI00
aI00
aI00
aI00
aI00
aI00
aI00
aI00
aI00
aI00
aI00
aI00
aI00
aI00
aI00
aI00
aI00
aI00
aI00
aI00
aI00
aI00
aI00
aI00
aI00
aI00
aI00
aI00
aI00
aI00
aI00
aI00
aI00
aI00
aI00
aI00
aI00
aI00
aI00
aI00
aI00
aI00
aI00
aI00
aI00
aI00
aI00
aI00
aI00
aI00
aI00
aI00
aI00
aI00
aI00
aI00
aI00
aI00
aI00
aI00
aI00
aI00
aI00
aI00
aI00
aI00
aI00
aI00
aI00
aI00
aI00
aI00
aI00
aI00
aI00
aI00
aI00
aI00
aI00
aI00
aI00
aI00
aI00
aI00
aI00
aI00
aI00
aI00
aI00
aI00
aI00
aI00
aI00
aI00
aI00
aI00
aI00
aI00
aI00
aI00
aI00
aI00
aI00
aI00
aI00
aI00
aI00
aI00
aI00
aI00
aI00
aI00
aI00
aI00
aI00
aI00
aI00
aI00
aI00
aI00
aI00
aI00
aI00
aI00
aI00
aI00
aI00
aI00
aI00
aI00
aI00
aI00
aI00
aI00
aI00
aI00
aI00
aI00
aI00
aI00
aI00
aI00
aI00
aI00
aI00
aI00
aI00
aI00
aI00
aI00
aI00
aI00
aI00
aI00
aI00
aI00
aI00
aI00
aI00
aI00
aI00
aI00
aI00
aI00
aI00
aI00
aI00
aI00
aI00
aI00
aI00
aI00
aI00
aI00
aI00
aI00
aI00
aI00
aI00
aI00
aI00
aI00
aI00
aI00
aI00
aI00
aI00
aI00
aI00
aI00
aI00
aI00
aI00
aI00
aI00
aI00
aI00
aI00
aI00
aI00
aI00
aI00
aI00
aI00
aI00
aI00
aI00
aI00
aI00
aI00
aI00
aI00
aI00
aI00
aI00
aI00
aI00
aI00
aI00
aI00
aI00
aI00
aI00
aI00
aI00
aI00
aI00
aI00
aI00
aI00
aI00
aI00
aI00
aI00
aI00
aI00
aI00
aI00
aI00
aI00
aI00
aI00
aI00
aI00
aI00
aI00
aI00
aI00
aI00
aI00
aI00
aI00
aI00
aI00
aI00
aI00
aI00
aI00
aI00
aI00
aI00
aI00
aI00
aI00
aI00
aI00
aI00
aI00
aI00
aI00
aI00
aI00
aI00
aI00
aI00
aI00
aI00
aI00
aI00
aI00
aI00
aI00
aI00
aI00
aI00
aI00
aI00
aI00
aI00
aI00
aI00
aI00
aI00
aI00
aI00
aI00
aI00
aI00
aI00
aI00
aI00
aI00
aI00
aI00
aI00
aI00
aI00
aI00
aI00
aI00
aI00
aI00
aI00
aI00
aI00
aI00
aI00
aI00
aI00
aI00
aI00
aI00
aI00
aI00
aI00
aI00
aI00
aI00
aI00
aI00
aI00
aI00
aI00
aI00
aI00
aI00
aI00
aI00
aI00
aI00
aI00
aI00
aI00
aI00
aI00
aI00
aI00
aI00
aI00
aI00
aI00
aI00
aI00
aI00
aI00
aI00
aI00
aI00
aI00
aI00
aI00
aI00
aI00
aI00
aI00
aI00
aI00
aI00
aI00
aI00
aI00
aI00
aI00
aI00
aI00
aI00
aI00
aI00
aI00
aI00
aI00
aI00
aI00
aI00
aI00
aI00
aI00
aI00
aI00
aI00
aI00
aI00
aI00
aI00
aI00
aI00
aI00
aI00
aI00
aI00
aI00
aI00
aI00
aI00
aI00
aI00
aI00
aI00
aI00
aI00
aI00
aI00
aI00
aI00
aI00
aI00
aI00
aI00
aI00
aI00
aI00
aI00
aI00
aI00
aI00
aI00
aI00
aI00
aI00
aI00
aI00
aI00
aI00
aI00
aI00
aI00
aI00
aI00
aI00
aI00
aI00
aI00
aI00
aI00
aI00
aI00
aI00
aI00
aI00
aI00
aI00
aI00
aI00
aI00
aI00
aI00
aI00
aI00
aI00
aI00
aI00
aI00
aI00
aI00
aI00
aI00
aI00
aI00
aI00
aI00
aI00
aI00
aI00
aI00
aI00
aI00
aI00
aI00
aI00
aI00
aI00
aI00
aI00
aI00
aI00
aI00
aI00
aI00
aI00
aI00
aI00
aI00
aI00
aI00
aI00
aI00
aI00
aI00
aI00
aI00
aI00
aI00
aI00
aI00
aI00
aI00
aI00
aI00
aI00
aI00
aI00
aI00
aI00
aI00
aI00
aI00
aI00
aI00
aI00
aI00
aI00
aI00
aI00
aI00
aI00
aI00
aI00
aI00
aI00
aI00
aI00
aI00
aI00
aI00
aI00
aI00
aI00
aI00
aI00
aI00
aI00
asS'createdAt'
p13
(lp14
VSun Apr 24 10:26:48 +0800 2016
p15
aVSun Apr 24 10:24:31 +0800 2016
p16
aVSun Apr 24 10:16:45 +0800 2016
p17
aVSun Apr 24 10:16:25 +0800 2016
p18
aVSun Apr 24 10:14:57 +0800 2016
p19
aVSun Apr 24 10:12:17 +0800 2016
p20
aVSun Apr 24 10:12:00 +0800 2016
p21
aVSun Apr 24 10:08:31 +0800 2016
p22
aVSun Apr 24 10:07:08 +0800 2016
p23
aVSun Apr 24 10:06:34 +0800 2016
p24
aVSun Apr 24 10:05:50 +0800 2016
p25
aVSun Apr 24 10:05:03 +0800 2016
p26
aVSun Apr 24 10:05:03 +0800 2016
p27
aVSun Apr 24 10:05:00 +0800 2016
p28
aVSun Apr 24 10:04:28 +0800 2016
p29
aVSun Apr 24 10:00:03 +0800 2016
p30
aVSun Apr 24 10:00:03 +0800 2016
p31
aVSun Apr 24 10:00:03 +0800 2016
p32
aVSun Apr 24 09:52:34 +0800 2016
p33
aVSun Apr 24 09:49:50 +0800 2016
p34
aVSun Apr 24 09:39:26 +0800 2016
p35
aVSun Apr 24 09:37:58 +0800 2016
p36
aVSun Apr 24 09:31:47 +0800 2016
p37
aVSun Apr 24 09:25:22 +0800 2016
p38
aVSun Apr 24 09:22:43 +0800 2016
p39
aVSun Apr 24 09:20:03 +0800 2016
p40
aVSun Apr 24 09:19:48 +0800 2016
p41
aVSun Apr 24 09:15:03 +0800 2016
p42
aVSun Apr 24 09:14:28 +0800 2016
p43
aVSun Apr 24 09:11:04 +0800 2016
p44
aVSun Apr 24 09:06:31 +0800 2016
p45
aVSun Apr 24 09:05:03 +0800 2016
p46
aVSun Apr 24 09:03:03 +0800 2016
p47
aVSun Apr 24 09:01:03 +0800 2016
p48
aVSun Apr 24 08:58:13 +0800 2016
p49
aVSun Apr 24 08:55:32 +0800 2016
p50
aVSun Apr 24 08:49:33 +0800 2016
p51
aVSun Apr 24 08:43:15 +0800 2016
p52
aVSun Apr 24 08:27:35 +0800 2016
p53
aVSun Apr 24 08:20:03 +0800 2016
p54
aVSun Apr 24 08:16:45 +0800 2016
p55
aVSun Apr 24 08:00:03 +0800 2016
p56
aVSun Apr 24 08:00:03 +0800 2016
p57
aVSun Apr 24 08:00:03 +0800 2016
p58
aVSun Apr 24 08:00:03 +0800 2016
p59
aVSun Apr 24 07:52:23 +0800 2016
p60
aVSun Apr 24 07:15:58 +0800 2016
p61
aVSun Apr 24 07:01:03 +0800 2016
p62
aVSun Apr 24 07:00:03 +0800 2016
p63
aVSun Apr 24 06:45:03 +0800 2016
p64
aVSun Apr 24 06:44:43 +0800 2016
p65
aVSun Apr 24 06:03:03 +0800 2016
p66
aVSun Apr 24 06:00:03 +0800 2016
p67
aVSun Apr 24 05:41:11 +0800 2016
p68
aVSun Apr 24 05:30:03 +0800 2016
p69
aVSun Apr 24 05:28:53 +0800 2016
p70
aVSun Apr 24 05:01:03 +0800 2016
p71
aVSun Apr 24 04:51:41 +0800 2016
p72
aVSun Apr 24 04:45:21 +0800 2016
p73
aVSun Apr 24 04:43:30 +0800 2016
p74
aVSun Apr 24 04:41:46 +0800 2016
p75
aVSun Apr 24 04:41:04 +0800 2016
p76
aVSun Apr 24 04:37:34 +0800 2016
p77
aVSun Apr 24 04:35:46 +0800 2016
p78
aVSun Apr 24 04:15:03 +0800 2016
p79
aVSun Apr 24 03:26:32 +0800 2016
p80
aVSun Apr 24 03:00:03 +0800 2016
p81
aVSun Apr 24 02:58:54 +0800 2016
p82
aVSun Apr 24 02:31:13 +0800 2016
p83
aVSun Apr 24 01:45:03 +0800 2016
p84
aVSun Apr 24 01:34:54 +0800 2016
p85
aVSun Apr 24 01:28:12 +0800 2016
p86
aVSun Apr 24 01:04:12 +0800 2016
p87
aVSun Apr 24 01:00:03 +0800 2016
p88
aVSun Apr 24 01:00:03 +0800 2016
p89
aVSun Apr 24 00:42:05 +0800 2016
p90
aVSun Apr 24 00:36:37 +0800 2016
p91
aVSun Apr 24 00:35:38 +0800 2016
p92
aVSun Apr 24 00:32:31 +0800 2016
p93
aVSun Apr 24 00:30:03 +0800 2016
p94
aVSun Apr 24 00:22:50 +0800 2016
p95
aVSun Apr 24 00:20:13 +0800 2016
p96
aVSun Apr 24 00:11:08 +0800 2016
p97
aVSun Apr 24 00:07:18 +0800 2016
p98
aVSun Apr 24 00:06:01 +0800 2016
p99
aVSun Apr 24 00:05:04 +0800 2016
p100
aVSun Apr 24 00:04:03 +0800 2016
p101
aVSun Apr 24 00:01:31 +0800 2016
p102
aVSun Apr 24 00:01:09 +0800 2016
p103
aVSun Apr 24 00:00:11 +0800 2016
p104
aVSun Apr 24 00:00:09 +0800 2016
p105
aVSun Apr 24 00:00:06 +0800 2016
p106
aVSun Apr 24 00:00:03 +0800 2016
p107
aVSun Apr 24 00:00:03 +0800 2016
p108
aVSat Apr 23 23:57:43 +0800 2016
p109
aVSat Apr 23 23:56:37 +0800 2016
p110
aVSat Apr 23 23:50:22 +0800 2016
p111
aVSat Apr 23 23:45:09 +0800 2016
p112
aVSat Apr 23 23:38:47 +0800 2016
p113
aVSat Apr 23 23:37:38 +0800 2016
p114
aVSat Apr 23 23:33:01 +0800 2016
p115
aVSat Apr 23 23:32:10 +0800 2016
p116
aVSat Apr 23 23:30:25 +0800 2016
p117
aVSat Apr 23 23:28:13 +0800 2016
p118
aVSat Apr 23 23:28:12 +0800 2016
p119
aVSat Apr 23 23:26:10 +0800 2016
p120
aVSat Apr 23 23:20:56 +0800 2016
p121
aVSat Apr 23 23:14:30 +0800 2016
p122
aVSat Apr 23 23:13:35 +0800 2016
p123
aVSat Apr 23 23:10:33 +0800 2016
p124
aVSat Apr 23 23:04:24 +0800 2016
p125
aVSat Apr 23 23:04:16 +0800 2016
p126
aVSat Apr 23 23:03:27 +0800 2016
p127
aVSat Apr 23 23:03:02 +0800 2016
p128
aVSat Apr 23 23:02:59 +0800 2016
p129
aVSat Apr 23 23:02:34 +0800 2016
p130
aVSat Apr 23 23:02:19 +0800 2016
p131
aVSat Apr 23 23:02:05 +0800 2016
p132
aVSat Apr 23 23:02:03 +0800 2016
p133
aVSat Apr 23 23:01:44 +0800 2016
p134
aVSat Apr 23 23:01:03 +0800 2016
p135
aVSat Apr 23 23:01:00 +0800 2016
p136
aVSat Apr 23 23:00:03 +0800 2016
p137
aVSat Apr 23 23:00:03 +0800 2016
p138
aVSat Apr 23 23:00:03 +0800 2016
p139
aVSat Apr 23 22:53:34 +0800 2016
p140
aVSat Apr 23 22:44:18 +0800 2016
p141
aVSat Apr 23 22:40:29 +0800 2016
p142
aVSat Apr 23 22:39:21 +0800 2016
p143
aVSat Apr 23 22:38:22 +0800 2016
p144
aVSat Apr 23 22:38:07 +0800 2016
p145
aVSat Apr 23 22:36:56 +0800 2016
p146
aVSat Apr 23 22:36:10 +0800 2016
p147
aVSat Apr 23 22:36:03 +0800 2016
p148
aVSat Apr 23 22:32:39 +0800 2016
p149
aVSat Apr 23 22:32:23 +0800 2016
p150
aVSat Apr 23 22:30:37 +0800 2016
p151
aVSat Apr 23 22:26:49 +0800 2016
p152
aVSat Apr 23 22:26:39 +0800 2016
p153
aVSat Apr 23 22:26:29 +0800 2016
p154
aVSat Apr 23 22:24:01 +0800 2016
p155
aVSat Apr 23 22:19:55 +0800 2016
p156
aVSat Apr 23 22:18:02 +0800 2016
p157
aVSat Apr 23 22:16:34 +0800 2016
p158
aVSat Apr 23 22:15:03 +0800 2016
p159
aVSat Apr 23 22:13:18 +0800 2016
p160
aVSat Apr 23 22:11:02 +0800 2016
p161
aVSat Apr 23 22:10:01 +0800 2016
p162
aVSat Apr 23 22:08:36 +0800 2016
p163
aVMon Apr 25 23:20:33 +0800 2016
p164
aVMon Apr 25 23:20:24 +0800 2016
p165
aVMon Apr 25 23:19:41 +0800 2016
p166
aVMon Apr 25 23:19:40 +0800 2016
p167
aVMon Apr 25 23:19:06 +0800 2016
p168
aVMon Apr 25 23:18:30 +0800 2016
p169
aVMon Apr 25 23:17:58 +0800 2016
p170
aVMon Apr 25 23:16:57 +0800 2016
p171
aVMon Apr 25 23:16:55 +0800 2016
p172
aVMon Apr 25 23:16:42 +0800 2016
p173
aVMon Apr 25 23:15:42 +0800 2016
p174
aVMon Apr 25 23:13:54 +0800 2016
p175
aVMon Apr 25 23:12:03 +0800 2016
p176
aVMon Apr 25 23:08:30 +0800 2016
p177
aVMon Apr 25 23:08:08 +0800 2016
p178
aVMon Apr 25 23:06:58 +0800 2016
p179
aVMon Apr 25 23:06:01 +0800 2016
p180
aVMon Apr 25 23:05:56 +0800 2016
p181
aVMon Apr 25 23:03:58 +0800 2016
p182
aVMon Apr 25 23:03:14 +0800 2016
p183
aVMon Apr 25 23:03:04 +0800 2016
p184
aVMon Apr 25 23:02:28 +0800 2016
p185
aVMon Apr 25 23:01:03 +0800 2016
p186
aVMon Apr 25 23:01:03 +0800 2016
p187
aVMon Apr 25 23:01:03 +0800 2016
p188
aVMon Apr 25 23:00:58 +0800 2016
p189
aVMon Apr 25 23:00:03 +0800 2016
p190
aVMon Apr 25 23:00:03 +0800 2016
p191
aVMon Apr 25 23:00:03 +0800 2016
p192
aVMon Apr 25 23:00:03 +0800 2016
p193
aVMon Apr 25 22:55:42 +0800 2016
p194
aVMon Apr 25 22:55:41 +0800 2016
p195
aVMon Apr 25 22:55:19 +0800 2016
p196
aVMon Apr 25 22:54:44 +0800 2016
p197
aVMon Apr 25 22:52:30 +0800 2016
p198
aVMon Apr 25 22:51:53 +0800 2016
p199
aVMon Apr 25 22:50:26 +0800 2016
p200
aVMon Apr 25 22:50:08 +0800 2016
p201
aVMon Apr 25 22:50:07 +0800 2016
p202
aVMon Apr 25 22:49:42 +0800 2016
p203
aVMon Apr 25 22:48:01 +0800 2016
p204
aVMon Apr 25 22:47:14 +0800 2016
p205
aVMon Apr 25 22:42:54 +0800 2016
p206
aVMon Apr 25 22:40:35 +0800 2016
p207
aVMon Apr 25 22:39:34 +0800 2016
p208
aVMon Apr 25 22:38:05 +0800 2016
p209
aVMon Apr 25 22:37:12 +0800 2016
p210
aVMon Apr 25 22:36:57 +0800 2016
p211
aVMon Apr 25 22:35:56 +0800 2016
p212
aVMon Apr 25 22:33:27 +0800 2016
p213
aVMon Apr 25 22:33:22 +0800 2016
p214
aVMon Apr 25 22:31:37 +0800 2016
p215
aVMon Apr 25 22:30:58 +0800 2016
p216
aVMon Apr 25 22:30:45 +0800 2016
p217
aVMon Apr 25 22:30:36 +0800 2016
p218
aVMon Apr 25 22:30:25 +0800 2016
p219
aVMon Apr 25 22:29:50 +0800 2016
p220
aVMon Apr 25 22:28:29 +0800 2016
p221
aVMon Apr 25 22:27:51 +0800 2016
p222
aVMon Apr 25 22:27:31 +0800 2016
p223
aVMon Apr 25 22:27:05 +0800 2016
p224
aVMon Apr 25 22:26:35 +0800 2016
p225
aVMon Apr 25 22:26:04 +0800 2016
p226
aVMon Apr 25 22:25:38 +0800 2016
p227
aVMon Apr 25 22:25:14 +0800 2016
p228
aVMon Apr 25 22:25:04 +0800 2016
p229
aVMon Apr 25 22:24:46 +0800 2016
p230
aVMon Apr 25 22:23:59 +0800 2016
p231
aVMon Apr 25 22:23:03 +0800 2016
p232
aVMon Apr 25 22:22:58 +0800 2016
p233
aVMon Apr 25 22:22:55 +0800 2016
p234
aVMon Apr 25 22:22:13 +0800 2016
p235
aVMon Apr 25 22:21:39 +0800 2016
p236
aVMon Apr 25 22:20:49 +0800 2016
p237
aVMon Apr 25 22:20:07 +0800 2016
p238
aVMon Apr 25 22:19:10 +0800 2016
p239
aVMon Apr 25 22:19:07 +0800 2016
p240
aVMon Apr 25 22:19:00 +0800 2016
p241
aVMon Apr 25 22:17:51 +0800 2016
p242
aVMon Apr 25 22:17:18 +0800 2016
p243
aVMon Apr 25 22:15:44 +0800 2016
p244
aVMon Apr 25 22:13:52 +0800 2016
p245
aVMon Apr 25 22:13:45 +0800 2016
p246
aVMon Apr 25 22:13:34 +0800 2016
p247
aVMon Apr 25 22:11:57 +0800 2016
p248
aVMon Apr 25 22:11:28 +0800 2016
p249
aVMon Apr 25 22:10:42 +0800 2016
p250
aVMon Apr 25 22:07:28 +0800 2016
p251
aVMon Apr 25 22:07:03 +0800 2016
p252
aVMon Apr 25 22:06:58 +0800 2016
p253
aVMon Apr 25 22:05:21 +0800 2016
p254
aVMon Apr 25 22:04:32 +0800 2016
p255
aVMon Apr 25 22:03:40 +0800 2016
p256
aVMon Apr 25 22:03:39 +0800 2016
p257
aVMon Apr 25 22:03:09 +0800 2016
p258
aVMon Apr 25 22:03:07 +0800 2016
p259
aVMon Apr 25 22:02:16 +0800 2016
p260
aVMon Apr 25 22:02:10 +0800 2016
p261
aVTue Apr 26 10:55:03 +0800 2016
p262
aVTue Apr 26 10:51:56 +0800 2016
p263
aVTue Apr 26 10:49:45 +0800 2016
p264
aVTue Apr 26 10:49:01 +0800 2016
p265
aVTue Apr 26 10:47:47 +0800 2016
p266
aVTue Apr 26 10:45:06 +0800 2016
p267
aVTue Apr 26 10:44:46 +0800 2016
p268
aVTue Apr 26 10:40:05 +0800 2016
p269
aVTue Apr 26 10:28:32 +0800 2016
p270
aVTue Apr 26 10:28:19 +0800 2016
p271
aVTue Apr 26 10:28:17 +0800 2016
p272
aVTue Apr 26 10:27:41 +0800 2016
p273
aVTue Apr 26 10:27:08 +0800 2016
p274
aVTue Apr 26 10:20:01 +0800 2016
p275
aVTue Apr 26 10:17:57 +0800 2016
p276
aVTue Apr 26 10:17:36 +0800 2016
p277
aVTue Apr 26 10:17:28 +0800 2016
p278
aVTue Apr 26 10:14:46 +0800 2016
p279
aVTue Apr 26 10:12:40 +0800 2016
p280
aVTue Apr 26 10:11:57 +0800 2016
p281
aVTue Apr 26 10:10:13 +0800 2016
p282
aVTue Apr 26 10:05:46 +0800 2016
p283
aVTue Apr 26 10:05:03 +0800 2016
p284
aVTue Apr 26 10:04:41 +0800 2016
p285
aVTue Apr 26 10:04:06 +0800 2016
p286
aVTue Apr 26 10:02:18 +0800 2016
p287
aVTue Apr 26 10:02:03 +0800 2016
p288
aVTue Apr 26 10:00:03 +0800 2016
p289
aVTue Apr 26 10:00:03 +0800 2016
p290
aVTue Apr 26 10:00:03 +0800 2016
p291
aVTue Apr 26 10:00:03 +0800 2016
p292
aVTue Apr 26 10:00:03 +0800 2016
p293
aVTue Apr 26 09:58:14 +0800 2016
p294
aVTue Apr 26 09:56:54 +0800 2016
p295
aVTue Apr 26 09:50:26 +0800 2016
p296
aVTue Apr 26 09:48:42 +0800 2016
p297
aVTue Apr 26 09:46:41 +0800 2016
p298
aVTue Apr 26 09:45:43 +0800 2016
p299
aVTue Apr 26 09:45:17 +0800 2016
p300
aVTue Apr 26 09:45:03 +0800 2016
p301
aVTue Apr 26 09:44:57 +0800 2016
p302
aVTue Apr 26 09:42:41 +0800 2016
p303
aVTue Apr 26 09:38:36 +0800 2016
p304
aVTue Apr 26 09:37:49 +0800 2016
p305
aVTue Apr 26 09:20:14 +0800 2016
p306
aVTue Apr 26 09:17:07 +0800 2016
p307
aVTue Apr 26 09:15:41 +0800 2016
p308
aVTue Apr 26 09:15:34 +0800 2016
p309
aVTue Apr 26 09:15:03 +0800 2016
p310
aVTue Apr 26 09:10:34 +0800 2016
p311
aVTue Apr 26 09:10:27 +0800 2016
p312
aVTue Apr 26 09:05:03 +0800 2016
p313
aVTue Apr 26 09:05:03 +0800 2016
p314
aVTue Apr 26 09:04:28 +0800 2016
p315
aVTue Apr 26 09:03:52 +0800 2016
p316
aVTue Apr 26 09:01:03 +0800 2016
p317
aVTue Apr 26 09:01:03 +0800 2016
p318
aVTue Apr 26 09:00:24 +0800 2016
p319
aVTue Apr 26 09:00:03 +0800 2016
p320
aVTue Apr 26 08:58:09 +0800 2016
p321
aVTue Apr 26 08:46:26 +0800 2016
p322
aVTue Apr 26 08:38:16 +0800 2016
p323
aVTue Apr 26 08:35:03 +0800 2016
p324
aVTue Apr 26 08:23:43 +0800 2016
p325
aVTue Apr 26 08:18:40 +0800 2016
p326
aVTue Apr 26 08:04:46 +0800 2016
p327
aVTue Apr 26 08:01:03 +0800 2016
p328
aVTue Apr 26 08:01:03 +0800 2016
p329
aVTue Apr 26 08:00:03 +0800 2016
p330
aVTue Apr 26 08:00:03 +0800 2016
p331
aVTue Apr 26 07:49:44 +0800 2016
p332
aVTue Apr 26 07:43:16 +0800 2016
p333
aVTue Apr 26 07:26:28 +0800 2016
p334
aVTue Apr 26 07:24:32 +0800 2016
p335
aVTue Apr 26 07:03:03 +0800 2016
p336
aVTue Apr 26 07:02:18 +0800 2016
p337
aVTue Apr 26 07:02:12 +0800 2016
p338
aVTue Apr 26 07:00:03 +0800 2016
p339
aVTue Apr 26 06:31:46 +0800 2016
p340
aVTue Apr 26 06:23:15 +0800 2016
p341
aVTue Apr 26 06:13:21 +0800 2016
p342
aVTue Apr 26 06:02:03 +0800 2016
p343
aVTue Apr 26 06:01:03 +0800 2016
p344
aVTue Apr 26 06:00:03 +0800 2016
p345
aVTue Apr 26 05:37:34 +0800 2016
p346
aVTue Apr 26 05:05:03 +0800 2016
p347
aVTue Apr 26 05:00:03 +0800 2016
p348
aVTue Apr 26 04:35:57 +0800 2016
p349
aVTue Apr 26 04:11:28 +0800 2016
p350
aVTue Apr 26 04:01:03 +0800 2016
p351
aVTue Apr 26 04:00:03 +0800 2016
p352
aVTue Apr 26 03:00:03 +0800 2016
p353
aVTue Apr 26 02:36:57 +0800 2016
p354
aVTue Apr 26 02:30:03 +0800 2016
p355
aVTue Apr 26 02:01:03 +0800 2016
p356
aVTue Apr 26 02:00:12 +0800 2016
p357
aVTue Apr 26 02:00:03 +0800 2016
p358
aVTue Apr 26 01:41:54 +0800 2016
p359
aVTue Apr 26 01:39:22 +0800 2016
p360
aVTue Apr 26 01:17:41 +0800 2016
p361
aVTue Apr 26 15:13:29 +0800 2016
p362
aVTue Apr 26 15:12:29 +0800 2016
p363
aVTue Apr 26 15:09:09 +0800 2016
p364
aVTue Apr 26 15:07:45 +0800 2016
p365
aVTue Apr 26 15:07:35 +0800 2016
p366
aVTue Apr 26 15:07:29 +0800 2016
p367
aVTue Apr 26 15:06:21 +0800 2016
p368
aVTue Apr 26 15:05:40 +0800 2016
p369
aVTue Apr 26 15:05:32 +0800 2016
p370
aVTue Apr 26 15:03:26 +0800 2016
p371
aVTue Apr 26 15:03:03 +0800 2016
p372
aVTue Apr 26 15:03:00 +0800 2016
p373
aVTue Apr 26 15:01:19 +0800 2016
p374
aVTue Apr 26 15:01:03 +0800 2016
p375
aVTue Apr 26 15:01:03 +0800 2016
p376
aVTue Apr 26 15:00:55 +0800 2016
p377
aVTue Apr 26 15:00:03 +0800 2016
p378
aVTue Apr 26 15:00:03 +0800 2016
p379
aVTue Apr 26 15:00:03 +0800 2016
p380
aVTue Apr 26 14:49:12 +0800 2016
p381
aVTue Apr 26 14:46:25 +0800 2016
p382
aVTue Apr 26 14:45:03 +0800 2016
p383
aVTue Apr 26 14:44:40 +0800 2016
p384
aVTue Apr 26 14:44:26 +0800 2016
p385
aVTue Apr 26 14:35:12 +0800 2016
p386
aVTue Apr 26 14:34:39 +0800 2016
p387
aVTue Apr 26 14:32:07 +0800 2016
p388
aVTue Apr 26 14:32:02 +0800 2016
p389
aVTue Apr 26 14:25:03 +0800 2016
p390
aVTue Apr 26 14:24:38 +0800 2016
p391
aVTue Apr 26 14:24:35 +0800 2016
p392
aVTue Apr 26 14:23:31 +0800 2016
p393
aVTue Apr 26 14:22:12 +0800 2016
p394
aVTue Apr 26 14:20:50 +0800 2016
p395
aVTue Apr 26 14:15:18 +0800 2016
p396
aVTue Apr 26 14:14:24 +0800 2016
p397
aVTue Apr 26 14:09:33 +0800 2016
p398
aVTue Apr 26 14:09:06 +0800 2016
p399
aVTue Apr 26 14:09:06 +0800 2016
p400
aVTue Apr 26 14:07:44 +0800 2016
p401
aVTue Apr 26 14:05:14 +0800 2016
p402
aVTue Apr 26 14:01:18 +0800 2016
p403
aVTue Apr 26 14:01:03 +0800 2016
p404
aVTue Apr 26 14:01:03 +0800 2016
p405
aVTue Apr 26 14:00:03 +0800 2016
p406
aVTue Apr 26 14:00:03 +0800 2016
p407
aVTue Apr 26 14:00:03 +0800 2016
p408
aVTue Apr 26 13:56:51 +0800 2016
p409
aVTue Apr 26 13:51:33 +0800 2016
p410
aVTue Apr 26 13:49:00 +0800 2016
p411
aVTue Apr 26 13:48:49 +0800 2016
p412
aVTue Apr 26 13:48:38 +0800 2016
p413
aVTue Apr 26 13:46:39 +0800 2016
p414
aVTue Apr 26 13:43:21 +0800 2016
p415
aVTue Apr 26 13:40:46 +0800 2016
p416
aVTue Apr 26 13:37:54 +0800 2016
p417
aVTue Apr 26 13:34:27 +0800 2016
p418
aVTue Apr 26 13:34:21 +0800 2016
p419
aVTue Apr 26 13:31:37 +0800 2016
p420
aVTue Apr 26 13:30:57 +0800 2016
p421
aVTue Apr 26 13:30:03 +0800 2016
p422
aVTue Apr 26 13:29:23 +0800 2016
p423
aVTue Apr 26 13:28:57 +0800 2016
p424
aVTue Apr 26 13:28:34 +0800 2016
p425
aVTue Apr 26 13:27:42 +0800 2016
p426
aVTue Apr 26 13:26:04 +0800 2016
p427
aVTue Apr 26 13:25:16 +0800 2016
p428
aVTue Apr 26 13:24:46 +0800 2016
p429
aVTue Apr 26 13:23:54 +0800 2016
p430
aVTue Apr 26 13:21:04 +0800 2016
p431
aVTue Apr 26 13:20:07 +0800 2016
p432
aVTue Apr 26 13:20:04 +0800 2016
p433
aVTue Apr 26 13:15:52 +0800 2016
p434
aVTue Apr 26 13:15:45 +0800 2016
p435
aVTue Apr 26 13:15:21 +0800 2016
p436
aVTue Apr 26 13:15:03 +0800 2016
p437
aVTue Apr 26 13:12:59 +0800 2016
p438
aVTue Apr 26 13:12:24 +0800 2016
p439
aVTue Apr 26 13:11:33 +0800 2016
p440
aVTue Apr 26 13:08:38 +0800 2016
p441
aVTue Apr 26 13:08:08 +0800 2016
p442
aVTue Apr 26 13:06:56 +0800 2016
p443
aVTue Apr 26 13:06:26 +0800 2016
p444
aVTue Apr 26 13:06:20 +0800 2016
p445
aVTue Apr 26 13:05:38 +0800 2016
p446
aVTue Apr 26 13:05:30 +0800 2016
p447
aVTue Apr 26 13:05:03 +0800 2016
p448
aVTue Apr 26 13:03:02 +0800 2016
p449
aVTue Apr 26 13:01:18 +0800 2016
p450
aVTue Apr 26 13:00:33 +0800 2016
p451
aVTue Apr 26 13:00:03 +0800 2016
p452
aVTue Apr 26 13:00:03 +0800 2016
p453
aVTue Apr 26 13:00:03 +0800 2016
p454
aVTue Apr 26 12:54:38 +0800 2016
p455
aVTue Apr 26 12:54:34 +0800 2016
p456
aVTue Apr 26 12:52:53 +0800 2016
p457
aVTue Apr 26 12:51:50 +0800 2016
p458
aVWed Apr 27 22:51:02 +0800 2016
p459
aVWed Apr 27 22:51:03 +0800 2016
p460
aVWed Apr 27 22:50:24 +0800 2016
p461
aVWed Apr 27 22:49:26 +0800 2016
p462
aVWed Apr 27 22:49:19 +0800 2016
p463
aVWed Apr 27 22:47:41 +0800 2016
p464
aVWed Apr 27 22:46:19 +0800 2016
p465
aVWed Apr 27 22:46:08 +0800 2016
p466
aVWed Apr 27 22:46:06 +0800 2016
p467
aVWed Apr 27 22:44:22 +0800 2016
p468
aVWed Apr 27 22:41:25 +0800 2016
p469
aVWed Apr 27 22:41:18 +0800 2016
p470
aVWed Apr 27 22:38:33 +0800 2016
p471
aVWed Apr 27 22:38:00 +0800 2016
p472
aVWed Apr 27 22:36:46 +0800 2016
p473
aVWed Apr 27 22:36:01 +0800 2016
p474
aVWed Apr 27 22:35:37 +0800 2016
p475
aVWed Apr 27 22:35:03 +0800 2016
p476
aVWed Apr 27 22:34:49 +0800 2016
p477
aVWed Apr 27 22:34:20 +0800 2016
p478
aVWed Apr 27 22:33:37 +0800 2016
p479
aVWed Apr 27 22:32:35 +0800 2016
p480
aVWed Apr 27 22:31:34 +0800 2016
p481
aVWed Apr 27 22:31:32 +0800 2016
p482
aVWed Apr 27 22:27:17 +0800 2016
p483
aVWed Apr 27 22:27:14 +0800 2016
p484
aVWed Apr 27 22:26:46 +0800 2016
p485
aVWed Apr 27 22:26:19 +0800 2016
p486
aVWed Apr 27 22:26:11 +0800 2016
p487
aVWed Apr 27 22:25:03 +0800 2016
p488
aVWed Apr 27 22:24:44 +0800 2016
p489
aVWed Apr 27 22:24:21 +0800 2016
p490
aVWed Apr 27 22:24:07 +0800 2016
p491
aVWed Apr 27 22:23:36 +0800 2016
p492
aVWed Apr 27 22:23:16 +0800 2016
p493
aVWed Apr 27 22:23:14 +0800 2016
p494
aVWed Apr 27 22:22:46 +0800 2016
p495
aVWed Apr 27 22:22:40 +0800 2016
p496
aVWed Apr 27 22:22:36 +0800 2016
p497
aVWed Apr 27 22:19:27 +0800 2016
p498
aVWed Apr 27 22:19:04 +0800 2016
p499
aVWed Apr 27 22:18:25 +0800 2016
p500
aVWed Apr 27 22:18:05 +0800 2016
p501
aVWed Apr 27 22:15:38 +0800 2016
p502
aVWed Apr 27 22:15:36 +0800 2016
p503
aVWed Apr 27 22:13:41 +0800 2016
p504
aVWed Apr 27 22:12:52 +0800 2016
p505
aVWed Apr 27 22:12:12 +0800 2016
p506
aVWed Apr 27 22:12:03 +0800 2016
p507
aVWed Apr 27 22:11:57 +0800 2016
p508
aVWed Apr 27 22:11:36 +0800 2016
p509
aVWed Apr 27 22:11:17 +0800 2016
p510
aVWed Apr 27 22:10:13 +0800 2016
p511
aVWed Apr 27 22:10:11 +0800 2016
p512
aVWed Apr 27 22:09:01 +0800 2016
p513
aVWed Apr 27 22:07:35 +0800 2016
p514
aVWed Apr 27 22:07:20 +0800 2016
p515
aVWed Apr 27 22:06:49 +0800 2016
p516
aVWed Apr 27 22:05:35 +0800 2016
p517
aVWed Apr 27 22:04:02 +0800 2016
p518
aVWed Apr 27 22:03:17 +0800 2016
p519
aVWed Apr 27 22:01:03 +0800 2016
p520
aVWed Apr 27 22:00:56 +0800 2016
p521
aVWed Apr 27 22:00:24 +0800 2016
p522
aVWed Apr 27 22:00:15 +0800 2016
p523
aVWed Apr 27 22:00:13 +0800 2016
p524
aVWed Apr 27 22:00:03 +0800 2016
p525
aVWed Apr 27 22:00:03 +0800 2016
p526
aVWed Apr 27 22:00:03 +0800 2016
p527
aVWed Apr 27 22:00:03 +0800 2016
p528
aVWed Apr 27 21:57:33 +0800 2016
p529
aVWed Apr 27 21:54:18 +0800 2016
p530
aVWed Apr 27 21:54:15 +0800 2016
p531
aVWed Apr 27 21:51:04 +0800 2016
p532
aVWed Apr 27 21:50:32 +0800 2016
p533
aVWed Apr 27 21:49:52 +0800 2016
p534
aVWed Apr 27 21:49:26 +0800 2016
p535
aVWed Apr 27 21:47:07 +0800 2016
p536
aVWed Apr 27 21:46:07 +0800 2016
p537
aVWed Apr 27 21:45:43 +0800 2016
p538
aVWed Apr 27 21:45:33 +0800 2016
p539
aVWed Apr 27 21:43:52 +0800 2016
p540
aVWed Apr 27 21:41:55 +0800 2016
p541
aVWed Apr 27 21:41:35 +0800 2016
p542
aVWed Apr 27 21:39:12 +0800 2016
p543
aVWed Apr 27 21:36:18 +0800 2016
p544
aVWed Apr 27 21:35:12 +0800 2016
p545
aVWed Apr 27 21:34:33 +0800 2016
p546
aVWed Apr 27 21:33:52 +0800 2016
p547
aVWed Apr 27 21:33:47 +0800 2016
p548
aVWed Apr 27 21:32:58 +0800 2016
p549
aVWed Apr 27 21:32:37 +0800 2016
p550
aVWed Apr 27 21:31:58 +0800 2016
p551
aVWed Apr 27 21:27:23 +0800 2016
p552
aVWed Apr 27 21:26:28 +0800 2016
p553
aVWed Apr 27 21:25:27 +0800 2016
p554
aVWed Apr 27 21:23:07 +0800 2016
p555
aVWed Apr 27 21:22:05 +0800 2016
p556
aVWed Apr 27 21:22:04 +0800 2016
p557
aVThu Apr 28 09:43:57 +0800 2016
p558
aVThu Apr 28 09:43:07 +0800 2016
p559
aVThu Apr 28 09:39:32 +0800 2016
p560
aVThu Apr 28 09:34:24 +0800 2016
p561
aVThu Apr 28 09:34:01 +0800 2016
p562
aVThu Apr 28 09:27:13 +0800 2016
p563
aVThu Apr 28 09:22:55 +0800 2016
p564
aVThu Apr 28 09:20:03 +0800 2016
p565
aVThu Apr 28 09:13:58 +0800 2016
p566
aVThu Apr 28 09:12:39 +0800 2016
p567
aVThu Apr 28 09:08:16 +0800 2016
p568
aVThu Apr 28 09:05:35 +0800 2016
p569
aVThu Apr 28 09:01:03 +0800 2016
p570
aVThu Apr 28 09:00:05 +0800 2016
p571
aVThu Apr 28 09:00:03 +0800 2016
p572
aVThu Apr 28 09:00:03 +0800 2016
p573
aVThu Apr 28 08:57:03 +0800 2016
p574
aVThu Apr 28 08:48:44 +0800 2016
p575
aVThu Apr 28 08:35:12 +0800 2016
p576
aVThu Apr 28 08:35:03 +0800 2016
p577
aVThu Apr 28 08:30:07 +0800 2016
p578
aVThu Apr 28 08:20:23 +0800 2016
p579
aVThu Apr 28 08:19:59 +0800 2016
p580
aVThu Apr 28 08:19:29 +0800 2016
p581
aVThu Apr 28 08:15:59 +0800 2016
p582
aVThu Apr 28 08:10:03 +0800 2016
p583
aVThu Apr 28 08:07:44 +0800 2016
p584
aVThu Apr 28 08:01:16 +0800 2016
p585
aVThu Apr 28 08:01:03 +0800 2016
p586
aVThu Apr 28 08:00:03 +0800 2016
p587
aVThu Apr 28 07:59:17 +0800 2016
p588
aVThu Apr 28 07:58:31 +0800 2016
p589
aVThu Apr 28 07:52:27 +0800 2016
p590
aVThu Apr 28 07:48:46 +0800 2016
p591
aVThu Apr 28 07:33:47 +0800 2016
p592
aVThu Apr 28 07:27:41 +0800 2016
p593
aVThu Apr 28 07:07:44 +0800 2016
p594
aVThu Apr 28 07:04:03 +0800 2016
p595
aVThu Apr 28 07:03:03 +0800 2016
p596
aVThu Apr 28 07:02:52 +0800 2016
p597
aVThu Apr 28 07:00:03 +0800 2016
p598
aVThu Apr 28 06:31:57 +0800 2016
p599
aVThu Apr 28 06:18:21 +0800 2016
p600
aVThu Apr 28 06:13:37 +0800 2016
p601
aVThu Apr 28 06:05:03 +0800 2016
p602
aVThu Apr 28 06:04:47 +0800 2016
p603
aVThu Apr 28 06:00:03 +0800 2016
p604
aVThu Apr 28 05:03:03 +0800 2016
p605
aVThu Apr 28 05:00:22 +0800 2016
p606
aVThu Apr 28 05:00:03 +0800 2016
p607
aVThu Apr 28 04:00:03 +0800 2016
p608
aVThu Apr 28 03:08:21 +0800 2016
p609
aVThu Apr 28 03:04:06 +0800 2016
p610
aVThu Apr 28 03:00:03 +0800 2016
p611
aVThu Apr 28 02:24:47 +0800 2016
p612
aVThu Apr 28 02:00:03 +0800 2016
p613
aVThu Apr 28 01:13:04 +0800 2016
p614
aVThu Apr 28 01:12:46 +0800 2016
p615
aVThu Apr 28 01:11:31 +0800 2016
p616
aVThu Apr 28 01:03:03 +0800 2016
p617
aVThu Apr 28 01:00:03 +0800 2016
p618
aVThu Apr 28 00:43:36 +0800 2016
p619
aVThu Apr 28 00:39:13 +0800 2016
p620
aVThu Apr 28 00:36:30 +0800 2016
p621
aVThu Apr 28 00:13:55 +0800 2016
p622
aVThu Apr 28 00:05:51 +0800 2016
p623
aVThu Apr 28 00:05:27 +0800 2016
p624
aVThu Apr 28 00:02:29 +0800 2016
p625
aVThu Apr 28 00:00:28 +0800 2016
p626
aVThu Apr 28 00:00:06 +0800 2016
p627
aVThu Apr 28 00:00:03 +0800 2016
p628
aVThu Apr 28 00:00:03 +0800 2016
p629
aVWed Apr 27 23:51:42 +0800 2016
p630
aVWed Apr 27 23:49:49 +0800 2016
p631
aVWed Apr 27 23:48:37 +0800 2016
p632
aVWed Apr 27 23:45:54 +0800 2016
p633
aVWed Apr 27 23:44:59 +0800 2016
p634
aVWed Apr 27 23:43:24 +0800 2016
p635
aVWed Apr 27 23:42:04 +0800 2016
p636
aVWed Apr 27 23:40:43 +0800 2016
p637
aVWed Apr 27 23:39:24 +0800 2016
p638
aVWed Apr 27 23:39:05 +0800 2016
p639
aVWed Apr 27 23:39:03 +0800 2016
p640
aVWed Apr 27 23:38:06 +0800 2016
p641
aVWed Apr 27 23:35:56 +0800 2016
p642
aVWed Apr 27 23:35:46 +0800 2016
p643
aVWed Apr 27 23:31:58 +0800 2016
p644
aVWed Apr 27 23:29:29 +0800 2016
p645
aVWed Apr 27 23:25:34 +0800 2016
p646
aVWed Apr 27 23:21:38 +0800 2016
p647
aVWed Apr 27 23:20:43 +0800 2016
p648
aVWed Apr 27 23:20:23 +0800 2016
p649
aVWed Apr 27 23:19:12 +0800 2016
p650
aVWed Apr 27 23:18:58 +0800 2016
p651
aVSun May 01 17:47:19 +0800 2016
p652
aVSun May 01 17:46:16 +0800 2016
p653
aVSun May 01 17:43:09 +0800 2016
p654
aVSun May 01 17:30:20 +0800 2016
p655
aVSun May 01 17:29:03 +0800 2016
p656
aVSun May 01 17:26:15 +0800 2016
p657
aVSun May 01 17:22:34 +0800 2016
p658
aVSun May 01 17:21:58 +0800 2016
p659
aVSun May 01 17:20:30 +0800 2016
p660
aVSun May 01 17:20:03 +0800 2016
p661
aVSun May 01 17:19:48 +0800 2016
p662
aVSun May 01 17:17:30 +0800 2016
p663
aVSun May 01 17:16:07 +0800 2016
p664
aVSun May 01 17:15:51 +0800 2016
p665
aVSun May 01 17:10:14 +0800 2016
p666
aVSun May 01 17:09:03 +0800 2016
p667
aVSun May 01 17:04:58 +0800 2016
p668
aVSun May 01 17:04:03 +0800 2016
p669
aVSun May 01 17:02:55 +0800 2016
p670
aVSun May 01 17:01:03 +0800 2016
p671
aVSun May 01 17:00:28 +0800 2016
p672
aVSun May 01 16:58:13 +0800 2016
p673
aVSun May 01 16:53:33 +0800 2016
p674
aVSun May 01 16:51:27 +0800 2016
p675
aVSun May 01 16:46:18 +0800 2016
p676
aVSun May 01 16:43:53 +0800 2016
p677
aVSun May 01 16:42:10 +0800 2016
p678
aVSun May 01 16:38:10 +0800 2016
p679
aVSun May 01 16:31:49 +0800 2016
p680
aVSun May 01 16:31:03 +0800 2016
p681
aVSun May 01 16:28:59 +0800 2016
p682
aVSun May 01 16:25:14 +0800 2016
p683
aVSun May 01 16:19:15 +0800 2016
p684
aVSun May 01 16:16:15 +0800 2016
p685
aVSun May 01 16:15:34 +0800 2016
p686
aVSun May 01 16:14:22 +0800 2016
p687
aVSun May 01 16:13:08 +0800 2016
p688
aVSun May 01 16:11:03 +0800 2016
p689
aVSun May 01 16:10:59 +0800 2016
p690
aVSun May 01 16:10:43 +0800 2016
p691
aVSun May 01 16:10:24 +0800 2016
p692
aVSun May 01 16:09:25 +0800 2016
p693
aVSun May 01 16:08:22 +0800 2016
p694
aVSun May 01 16:06:26 +0800 2016
p695
aVSun May 01 16:05:20 +0800 2016
p696
aVSun May 01 16:02:44 +0800 2016
p697
aVSun May 01 16:02:03 +0800 2016
p698
aVSun May 01 16:01:20 +0800 2016
p699
aVSun May 01 16:00:03 +0800 2016
p700
aVSun May 01 16:00:03 +0800 2016
p701
aVSun May 01 16:00:03 +0800 2016
p702
aVSun May 01 16:00:03 +0800 2016
p703
aVSun May 01 15:58:05 +0800 2016
p704
aVSun May 01 15:53:51 +0800 2016
p705
aVSun May 01 15:49:18 +0800 2016
p706
aVSun May 01 15:44:10 +0800 2016
p707
aVSun May 01 15:43:18 +0800 2016
p708
aVSun May 01 15:42:48 +0800 2016
p709
aVSun May 01 15:42:29 +0800 2016
p710
aVSun May 01 15:39:21 +0800 2016
p711
aVSun May 01 15:30:03 +0800 2016
p712
aVSun May 01 15:24:27 +0800 2016
p713
aVSun May 01 15:23:07 +0800 2016
p714
aVSun May 01 15:20:45 +0800 2016
p715
aVSun May 01 15:19:03 +0800 2016
p716
aVSun May 01 15:18:25 +0800 2016
p717
aVSun May 01 15:10:48 +0800 2016
p718
aVSun May 01 15:10:13 +0800 2016
p719
aVSun May 01 15:06:17 +0800 2016
p720
aVSun May 01 15:06:16 +0800 2016
p721
aVSun May 01 15:05:03 +0800 2016
p722
aVSun May 01 15:04:58 +0800 2016
p723
aVSun May 01 15:04:32 +0800 2016
p724
aVSun May 01 15:01:03 +0800 2016
p725
aVSun May 01 15:01:03 +0800 2016
p726
aVSun May 01 15:00:03 +0800 2016
p727
aVSun May 01 15:00:03 +0800 2016
p728
aVSun May 01 15:00:03 +0800 2016
p729
aVSun May 01 14:59:59 +0800 2016
p730
aVSun May 01 14:59:38 +0800 2016
p731
aVSun May 01 14:56:20 +0800 2016
p732
aVSun May 01 14:50:02 +0800 2016
p733
aVSun May 01 14:40:03 +0800 2016
p734
aVSun May 01 14:38:26 +0800 2016
p735
aVSun May 01 14:38:16 +0800 2016
p736
aVSun May 01 14:35:03 +0800 2016
p737
aVSun May 01 14:33:32 +0800 2016
p738
aVSun May 01 14:32:03 +0800 2016
p739
aVSun May 01 14:27:38 +0800 2016
p740
aVSun May 01 14:26:46 +0800 2016
p741
aVSun May 01 14:25:51 +0800 2016
p742
aVSun May 01 14:20:03 +0800 2016
p743
aVSun May 01 14:15:04 +0800 2016
p744
aVSun May 01 14:15:03 +0800 2016
p745
aVSun May 01 14:14:59 +0800 2016
p746
aVSun May 01 14:13:57 +0800 2016
p747
aVSun May 01 14:10:56 +0800 2016
p748
aVSun May 01 14:09:31 +0800 2016
p749
aVMon May 02 00:04:15 +0800 2016
p750
aVMon May 02 00:04:03 +0800 2016
p751
aVMon May 02 00:03:50 +0800 2016
p752
aVMon May 02 00:03:06 +0800 2016
p753
aVMon May 02 00:01:03 +0800 2016
p754
aVSun May 01 23:49:04 +0800 2016
p755
aVSun May 01 23:45:44 +0800 2016
p756
aVSun May 01 23:43:08 +0800 2016
p757
aVSun May 01 23:42:47 +0800 2016
p758
aVSun May 01 23:42:05 +0800 2016
p759
aVSun May 01 23:40:13 +0800 2016
p760
aVSun May 01 23:35:38 +0800 2016
p761
aVSun May 01 23:34:20 +0800 2016
p762
aVSun May 01 23:32:56 +0800 2016
p763
aVSun May 01 23:32:33 +0800 2016
p764
aVSun May 01 23:31:37 +0800 2016
p765
aVSun May 01 23:30:30 +0800 2016
p766
aVSun May 01 23:30:03 +0800 2016
p767
aVSun May 01 23:26:04 +0800 2016
p768
aVSun May 01 23:26:00 +0800 2016
p769
aVSun May 01 23:22:46 +0800 2016
p770
aVSun May 01 23:22:31 +0800 2016
p771
aVSun May 01 23:22:16 +0800 2016
p772
aVSun May 01 23:18:54 +0800 2016
p773
aVSun May 01 23:16:48 +0800 2016
p774
aVSun May 01 23:15:52 +0800 2016
p775
aVSun May 01 23:15:48 +0800 2016
p776
aVSun May 01 23:15:03 +0800 2016
p777
aVSun May 01 23:14:53 +0800 2016
p778
aVSun May 01 23:10:07 +0800 2016
p779
aVSun May 01 23:07:33 +0800 2016
p780
aVSun May 01 23:06:43 +0800 2016
p781
aVSun May 01 23:04:25 +0800 2016
p782
aVSun May 01 23:03:03 +0800 2016
p783
aVSun May 01 23:02:55 +0800 2016
p784
aVSun May 01 23:01:55 +0800 2016
p785
aVSun May 01 23:01:44 +0800 2016
p786
aVSun May 01 23:01:03 +0800 2016
p787
aVSun May 01 23:01:03 +0800 2016
p788
aVSun May 01 23:00:03 +0800 2016
p789
aVSun May 01 22:59:22 +0800 2016
p790
aVSun May 01 22:57:23 +0800 2016
p791
aVSun May 01 22:56:38 +0800 2016
p792
aVSun May 01 22:50:26 +0800 2016
p793
aVSun May 01 22:49:48 +0800 2016
p794
aVSun May 01 22:48:53 +0800 2016
p795
aVSun May 01 22:47:12 +0800 2016
p796
aVSun May 01 22:44:35 +0800 2016
p797
aVSun May 01 22:43:02 +0800 2016
p798
aVSun May 01 22:42:45 +0800 2016
p799
aVSun May 01 22:42:14 +0800 2016
p800
aVSun May 01 22:40:17 +0800 2016
p801
aVSun May 01 22:39:00 +0800 2016
p802
aVSun May 01 22:37:30 +0800 2016
p803
aVSun May 01 22:35:58 +0800 2016
p804
aVSun May 01 22:34:35 +0800 2016
p805
aVSun May 01 22:33:22 +0800 2016
p806
aVSun May 01 22:30:30 +0800 2016
p807
aVSun May 01 22:30:18 +0800 2016
p808
aVSun May 01 22:30:03 +0800 2016
p809
aVSun May 01 22:28:51 +0800 2016
p810
aVSun May 01 22:25:10 +0800 2016
p811
aVSun May 01 22:23:46 +0800 2016
p812
aVSun May 01 22:23:35 +0800 2016
p813
aVSun May 01 22:22:03 +0800 2016
p814
aVSun May 01 22:17:37 +0800 2016
p815
aVSun May 01 22:17:30 +0800 2016
p816
aVSun May 01 22:15:57 +0800 2016
p817
aVSun May 01 22:15:47 +0800 2016
p818
aVSun May 01 22:10:25 +0800 2016
p819
aVSun May 01 22:09:20 +0800 2016
p820
aVSun May 01 22:08:24 +0800 2016
p821
aVSun May 01 22:06:52 +0800 2016
p822
aVSun May 01 22:06:29 +0800 2016
p823
aVSun May 01 22:05:52 +0800 2016
p824
aVSun May 01 22:05:36 +0800 2016
p825
aVSun May 01 22:03:02 +0800 2016
p826
aVSun May 01 22:02:36 +0800 2016
p827
aVSun May 01 22:02:03 +0800 2016
p828
aVSun May 01 22:01:48 +0800 2016
p829
aVSun May 01 22:01:03 +0800 2016
p830
aVSun May 01 22:00:40 +0800 2016
p831
aVSun May 01 22:00:28 +0800 2016
p832
aVSun May 01 22:00:03 +0800 2016
p833
aVSun May 01 22:00:03 +0800 2016
p834
aVSun May 01 22:00:03 +0800 2016
p835
aVSun May 01 21:59:10 +0800 2016
p836
aVSun May 01 21:58:24 +0800 2016
p837
aVSun May 01 21:58:16 +0800 2016
p838
aVSun May 01 21:54:36 +0800 2016
p839
aVSun May 01 21:52:14 +0800 2016
p840
aVSun May 01 21:50:55 +0800 2016
p841
aVSun May 01 21:50:32 +0800 2016
p842
aVSun May 01 21:46:04 +0800 2016
p843
aVSun May 01 21:45:03 +0800 2016
p844
aVSun May 01 21:42:03 +0800 2016
p845
aVSun May 01 21:40:58 +0800 2016
p846
aVMon May 02 11:32:41 +0800 2016
p847
aVMon May 02 11:30:42 +0800 2016
p848
aVMon May 02 11:30:02 +0800 2016
p849
aVMon May 02 11:29:55 +0800 2016
p850
aVMon May 02 11:26:36 +0800 2016
p851
aVMon May 02 11:20:50 +0800 2016
p852
aVMon May 02 11:19:33 +0800 2016
p853
aVMon May 02 11:19:23 +0800 2016
p854
aVMon May 02 11:16:43 +0800 2016
p855
aVMon May 02 11:15:30 +0800 2016
p856
aVMon May 02 11:10:21 +0800 2016
p857
aVMon May 02 11:06:03 +0800 2016
p858
aVMon May 02 11:05:03 +0800 2016
p859
aVMon May 02 11:02:28 +0800 2016
p860
aVMon May 02 11:02:28 +0800 2016
p861
aVMon May 02 11:01:03 +0800 2016
p862
aVMon May 02 11:01:02 +0800 2016
p863
aVMon May 02 11:00:03 +0800 2016
p864
aVMon May 02 10:56:16 +0800 2016
p865
aVMon May 02 10:48:28 +0800 2016
p866
aVMon May 02 10:40:17 +0800 2016
p867
aVMon May 02 10:40:03 +0800 2016
p868
aVMon May 02 10:38:02 +0800 2016
p869
aVMon May 02 10:26:43 +0800 2016
p870
aVMon May 02 10:14:34 +0800 2016
p871
aVMon May 02 10:10:39 +0800 2016
p872
aVMon May 02 10:10:30 +0800 2016
p873
aVMon May 02 10:10:04 +0800 2016
p874
aVMon May 02 10:07:11 +0800 2016
p875
aVMon May 02 10:06:31 +0800 2016
p876
aVMon May 02 10:05:51 +0800 2016
p877
aVMon May 02 10:05:03 +0800 2016
p878
aVMon May 02 10:04:07 +0800 2016
p879
aVMon May 02 10:03:54 +0800 2016
p880
aVMon May 02 10:03:03 +0800 2016
p881
aVMon May 02 10:01:18 +0800 2016
p882
aVMon May 02 10:00:03 +0800 2016
p883
aVMon May 02 09:35:38 +0800 2016
p884
aVMon May 02 09:33:53 +0800 2016
p885
aVMon May 02 09:28:09 +0800 2016
p886
aVMon May 02 09:20:03 +0800 2016
p887
aVMon May 02 09:15:03 +0800 2016
p888
aVMon May 02 09:08:43 +0800 2016
p889
aVMon May 02 09:07:16 +0800 2016
p890
aVMon May 02 09:02:12 +0800 2016
p891
aVMon May 02 09:02:03 +0800 2016
p892
aVMon May 02 09:00:22 +0800 2016
p893
aVMon May 02 09:00:03 +0800 2016
p894
aVMon May 02 09:00:03 +0800 2016
p895
aVMon May 02 08:41:18 +0800 2016
p896
aVMon May 02 08:33:42 +0800 2016
p897
aVMon May 02 08:27:32 +0800 2016
p898
aVMon May 02 08:25:24 +0800 2016
p899
aVMon May 02 08:21:43 +0800 2016
p900
aVMon May 02 08:18:53 +0800 2016
p901
aVMon May 02 08:15:53 +0800 2016
p902
aVMon May 02 08:03:03 +0800 2016
p903
aVMon May 02 08:01:06 +0800 2016
p904
aVMon May 02 08:00:03 +0800 2016
p905
aVMon May 02 08:00:03 +0800 2016
p906
aVMon May 02 08:00:03 +0800 2016
p907
aVMon May 02 07:59:49 +0800 2016
p908
aVMon May 02 07:49:48 +0800 2016
p909
aVMon May 02 07:38:59 +0800 2016
p910
aVMon May 02 07:10:12 +0800 2016
p911
aVMon May 02 07:01:03 +0800 2016
p912
aVMon May 02 07:00:11 +0800 2016
p913
aVMon May 02 07:00:03 +0800 2016
p914
aVMon May 02 06:45:10 +0800 2016
p915
aVMon May 02 06:45:03 +0800 2016
p916
aVMon May 02 06:07:53 +0800 2016
p917
aVMon May 02 06:06:46 +0800 2016
p918
aVMon May 02 06:02:03 +0800 2016
p919
aVMon May 02 05:55:34 +0800 2016
p920
aVMon May 02 05:43:37 +0800 2016
p921
aVMon May 02 05:30:03 +0800 2016
p922
aVMon May 02 05:01:03 +0800 2016
p923
aVMon May 02 05:00:03 +0800 2016
p924
aVMon May 02 04:43:46 +0800 2016
p925
aVMon May 02 04:40:05 +0800 2016
p926
aVMon May 02 04:15:03 +0800 2016
p927
aVMon May 02 04:00:03 +0800 2016
p928
aVMon May 02 03:00:03 +0800 2016
p929
aVMon May 02 03:00:03 +0800 2016
p930
aVMon May 02 02:00:03 +0800 2016
p931
aVMon May 02 01:45:03 +0800 2016
p932
aVMon May 02 01:38:10 +0800 2016
p933
aVMon May 02 01:28:46 +0800 2016
p934
aVMon May 02 01:12:24 +0800 2016
p935
aVMon May 02 01:02:55 +0800 2016
p936
aVMon May 02 00:59:03 +0800 2016
p937
aVMon May 02 00:46:53 +0800 2016
p938
aVMon May 02 00:35:03 +0800 2016
p939
aVMon May 02 00:30:03 +0800 2016
p940
aVMon May 02 00:25:02 +0800 2016
p941
aVMon May 02 00:24:21 +0800 2016
p942
aVMon May 02 00:13:06 +0800 2016
p943
aVMon May 02 00:12:50 +0800 2016
p944
aVMon May 02 00:09:46 +0800 2016
p945
aVTue May 03 08:15:53 +0800 2016
p946
aVTue May 03 08:02:41 +0800 2016
p947
aVTue May 03 08:01:03 +0800 2016
p948
aVTue May 03 08:00:46 +0800 2016
p949
aVTue May 03 08:00:03 +0800 2016
p950
aVTue May 03 08:00:03 +0800 2016
p951
aVTue May 03 07:35:43 +0800 2016
p952
aVTue May 03 07:27:49 +0800 2016
p953
aVTue May 03 07:26:49 +0800 2016
p954
aVTue May 03 07:25:48 +0800 2016
p955
aVTue May 03 07:25:20 +0800 2016
p956
aVTue May 03 07:03:03 +0800 2016
p957
aVTue May 03 07:00:57 +0800 2016
p958
aVTue May 03 07:00:03 +0800 2016
p959
aVTue May 03 07:00:03 +0800 2016
p960
aVTue May 03 06:57:48 +0800 2016
p961
aVTue May 03 06:51:44 +0800 2016
p962
aVTue May 03 06:07:34 +0800 2016
p963
aVTue May 03 06:01:03 +0800 2016
p964
aVTue May 03 06:00:03 +0800 2016
p965
aVTue May 03 06:00:03 +0800 2016
p966
aVTue May 03 05:42:58 +0800 2016
p967
aVTue May 03 05:38:34 +0800 2016
p968
aVTue May 03 05:05:03 +0800 2016
p969
aVTue May 03 05:04:49 +0800 2016
p970
aVTue May 03 05:00:03 +0800 2016
p971
aVTue May 03 05:00:03 +0800 2016
p972
aVTue May 03 04:00:03 +0800 2016
p973
aVTue May 03 04:00:03 +0800 2016
p974
aVTue May 03 03:00:03 +0800 2016
p975
aVTue May 03 03:00:03 +0800 2016
p976
aVTue May 03 02:40:33 +0800 2016
p977
aVTue May 03 02:30:03 +0800 2016
p978
aVTue May 03 02:29:34 +0800 2016
p979
aVTue May 03 02:15:12 +0800 2016
p980
aVTue May 03 02:00:03 +0800 2016
p981
aVTue May 03 02:00:03 +0800 2016
p982
aVTue May 03 01:59:55 +0800 2016
p983
aVTue May 03 01:47:59 +0800 2016
p984
aVTue May 03 01:30:03 +0800 2016
p985
aVTue May 03 01:09:45 +0800 2016
p986
aVTue May 03 01:06:03 +0800 2016
p987
aVTue May 03 01:00:03 +0800 2016
p988
aVTue May 03 01:00:03 +0800 2016
p989
aVTue May 03 00:38:32 +0800 2016
p990
aVTue May 03 00:37:06 +0800 2016
p991
aVTue May 03 00:30:03 +0800 2016
p992
aVTue May 03 00:20:02 +0800 2016
p993
aVTue May 03 00:13:26 +0800 2016
p994
aVTue May 03 00:12:42 +0800 2016
p995
aVTue May 03 00:10:16 +0800 2016
p996
aVTue May 03 00:08:55 +0800 2016
p997
aVTue May 03 00:08:03 +0800 2016
p998
aVTue May 03 00:03:23 +0800 2016
p999
aVTue May 03 00:03:18 +0800 2016
p1000
aVTue May 03 00:00:18 +0800 2016
p1001
aVTue May 03 00:00:13 +0800 2016
p1002
aVTue May 03 00:00:05 +0800 2016
p1003
aVTue May 03 00:00:03 +0800 2016
p1004
aVTue May 03 00:00:03 +0800 2016
p1005
aVMon May 02 23:59:49 +0800 2016
p1006
aVMon May 02 23:50:56 +0800 2016
p1007
aVMon May 02 23:49:18 +0800 2016
p1008
aVMon May 02 23:45:35 +0800 2016
p1009
aVMon May 02 23:45:25 +0800 2016
p1010
aVMon May 02 23:44:57 +0800 2016
p1011
aVMon May 02 23:37:40 +0800 2016
p1012
aVMon May 02 23:37:13 +0800 2016
p1013
aVMon May 02 23:36:06 +0800 2016
p1014
aVMon May 02 23:31:34 +0800 2016
p1015
aVMon May 02 23:30:03 +0800 2016
p1016
aVMon May 02 23:26:14 +0800 2016
p1017
aVMon May 02 23:25:55 +0800 2016
p1018
aVMon May 02 23:24:09 +0800 2016
p1019
aVMon May 02 23:18:02 +0800 2016
p1020
aVMon May 02 23:17:53 +0800 2016
p1021
aVMon May 02 23:17:03 +0800 2016
p1022
aVMon May 02 23:16:19 +0800 2016
p1023
aVMon May 02 23:15:29 +0800 2016
p1024
aVMon May 02 23:10:28 +0800 2016
p1025
aVMon May 02 23:10:25 +0800 2016
p1026
aVMon May 02 23:09:06 +0800 2016
p1027
aVMon May 02 23:08:27 +0800 2016
p1028
aVMon May 02 23:06:04 +0800 2016
p1029
aVMon May 02 23:06:03 +0800 2016
p1030
aVMon May 02 23:04:48 +0800 2016
p1031
aVMon May 02 23:04:44 +0800 2016
p1032
aVMon May 02 23:04:08 +0800 2016
p1033
aVMon May 02 23:03:55 +0800 2016
p1034
aVMon May 02 23:03:50 +0800 2016
p1035
aVMon May 02 23:01:34 +0800 2016
p1036
aVMon May 02 23:01:03 +0800 2016
p1037
aVMon May 02 23:01:03 +0800 2016
p1038
aVMon May 02 23:00:03 +0800 2016
p1039
aVMon May 02 23:00:03 +0800 2016
p1040
aVMon May 02 23:00:03 +0800 2016
p1041
aVMon May 02 23:00:03 +0800 2016
p1042
aVWed May 04 21:07:15 +0800 2016
p1043
aVWed May 04 21:07:06 +0800 2016
p1044
aVWed May 04 21:05:37 +0800 2016
p1045
aVWed May 04 21:05:29 +0800 2016
p1046
aVWed May 04 21:05:07 +0800 2016
p1047
aVWed May 04 21:04:48 +0800 2016
p1048
aVWed May 04 21:04:36 +0800 2016
p1049
aVWed May 04 21:04:29 +0800 2016
p1050
aVWed May 04 21:04:18 +0800 2016
p1051
aVWed May 04 21:02:58 +0800 2016
p1052
aVWed May 04 21:02:05 +0800 2016
p1053
aVWed May 04 21:01:03 +0800 2016
p1054
aVWed May 04 21:01:03 +0800 2016
p1055
aVWed May 04 21:01:03 +0800 2016
p1056
aVWed May 04 21:01:03 +0800 2016
p1057
aVWed May 04 21:00:26 +0800 2016
p1058
aVWed May 04 21:00:18 +0800 2016
p1059
aVWed May 04 21:00:05 +0800 2016
p1060
aVWed May 04 21:00:03 +0800 2016
p1061
aVWed May 04 20:59:42 +0800 2016
p1062
aVWed May 04 20:56:42 +0800 2016
p1063
aVWed May 04 20:55:38 +0800 2016
p1064
aVWed May 04 20:55:30 +0800 2016
p1065
aVWed May 04 20:55:21 +0800 2016
p1066
aVWed May 04 20:54:08 +0800 2016
p1067
aVWed May 04 20:52:55 +0800 2016
p1068
aVWed May 04 20:52:46 +0800 2016
p1069
aVWed May 04 20:51:15 +0800 2016
p1070
aVWed May 04 20:50:50 +0800 2016
p1071
aVWed May 04 20:50:34 +0800 2016
p1072
aVWed May 04 20:43:09 +0800 2016
p1073
aVWed May 04 20:41:12 +0800 2016
p1074
aVWed May 04 20:37:12 +0800 2016
p1075
aVWed May 04 20:36:35 +0800 2016
p1076
aVWed May 04 20:33:38 +0800 2016
p1077
aVWed May 04 20:32:02 +0800 2016
p1078
aVWed May 04 20:31:53 +0800 2016
p1079
aVWed May 04 20:31:25 +0800 2016
p1080
aVWed May 04 20:31:00 +0800 2016
p1081
aVWed May 04 20:30:49 +0800 2016
p1082
aVWed May 04 20:30:18 +0800 2016
p1083
aVWed May 04 20:30:14 +0800 2016
p1084
aVWed May 04 20:26:45 +0800 2016
p1085
aVWed May 04 20:26:16 +0800 2016
p1086
aVWed May 04 20:26:14 +0800 2016
p1087
aVWed May 04 20:25:49 +0800 2016
p1088
aVWed May 04 20:25:32 +0800 2016
p1089
aVWed May 04 20:25:13 +0800 2016
p1090
aVWed May 04 20:24:41 +0800 2016
p1091
aVWed May 04 20:23:33 +0800 2016
p1092
aVWed May 04 20:22:40 +0800 2016
p1093
aVWed May 04 20:21:09 +0800 2016
p1094
aVWed May 04 20:20:27 +0800 2016
p1095
aVWed May 04 20:18:46 +0800 2016
p1096
aVWed May 04 20:17:30 +0800 2016
p1097
aVWed May 04 20:17:01 +0800 2016
p1098
aVWed May 04 20:15:29 +0800 2016
p1099
aVWed May 04 20:15:26 +0800 2016
p1100
aVWed May 04 20:15:03 +0800 2016
p1101
aVWed May 04 20:14:16 +0800 2016
p1102
aVWed May 04 20:12:48 +0800 2016
p1103
aVWed May 04 20:11:16 +0800 2016
p1104
aVWed May 04 20:10:58 +0800 2016
p1105
aVWed May 04 20:10:37 +0800 2016
p1106
aVWed May 04 20:08:35 +0800 2016
p1107
aVWed May 04 20:08:11 +0800 2016
p1108
aVWed May 04 20:07:20 +0800 2016
p1109
aVWed May 04 20:05:03 +0800 2016
p1110
aVWed May 04 20:03:16 +0800 2016
p1111
aVWed May 04 20:01:52 +0800 2016
p1112
aVWed May 04 20:01:07 +0800 2016
p1113
aVWed May 04 20:01:03 +0800 2016
p1114
aVWed May 04 20:01:03 +0800 2016
p1115
aVWed May 04 20:00:13 +0800 2016
p1116
aVWed May 04 20:00:03 +0800 2016
p1117
aVWed May 04 20:00:03 +0800 2016
p1118
aVWed May 04 19:59:18 +0800 2016
p1119
aVWed May 04 19:59:03 +0800 2016
p1120
aVWed May 04 19:58:03 +0800 2016
p1121
aVWed May 04 19:57:57 +0800 2016
p1122
aVWed May 04 19:57:18 +0800 2016
p1123
aVWed May 04 19:56:46 +0800 2016
p1124
aVWed May 04 19:52:10 +0800 2016
p1125
aVWed May 04 19:51:56 +0800 2016
p1126
aVWed May 04 19:51:10 +0800 2016
p1127
aVWed May 04 19:47:22 +0800 2016
p1128
aVWed May 04 19:47:22 +0800 2016
p1129
aVWed May 04 19:46:57 +0800 2016
p1130
aVWed May 04 19:44:23 +0800 2016
p1131
aVWed May 04 19:42:25 +0800 2016
p1132
aVWed May 04 19:40:43 +0800 2016
p1133
aVWed May 04 19:35:02 +0800 2016
p1134
aVWed May 04 19:33:15 +0800 2016
p1135
aVWed May 04 19:31:23 +0800 2016
p1136
aVWed May 04 19:30:36 +0800 2016
p1137
aVWed May 04 19:30:07 +0800 2016
p1138
aVWed May 04 19:30:06 +0800 2016
p1139
aVWed May 04 19:30:04 +0800 2016
p1140
aVWed May 04 19:29:04 +0800 2016
p1141
aVWed May 04 19:27:50 +0800 2016
p1142
aVFri May 06 22:12:42 +0800 2016
p1143
aVFri May 06 22:09:49 +0800 2016
p1144
aVFri May 06 22:09:28 +0800 2016
p1145
aVFri May 06 22:09:10 +0800 2016
p1146
aVFri May 06 22:08:19 +0800 2016
p1147
aVFri May 06 22:06:19 +0800 2016
p1148
aVFri May 06 22:05:28 +0800 2016
p1149
aVFri May 06 22:05:19 +0800 2016
p1150
aVFri May 06 22:05:13 +0800 2016
p1151
aVFri May 06 22:04:08 +0800 2016
p1152
aVFri May 06 22:03:01 +0800 2016
p1153
aVFri May 06 22:02:20 +0800 2016
p1154
aVFri May 06 22:01:50 +0800 2016
p1155
aVFri May 06 22:01:20 +0800 2016
p1156
aVFri May 06 22:01:10 +0800 2016
p1157
aVFri May 06 22:01:03 +0800 2016
p1158
aVFri May 06 22:00:51 +0800 2016
p1159
aVFri May 06 22:00:19 +0800 2016
p1160
aVFri May 06 22:00:03 +0800 2016
p1161
aVFri May 06 22:00:03 +0800 2016
p1162
aVFri May 06 22:00:03 +0800 2016
p1163
aVFri May 06 21:57:22 +0800 2016
p1164
aVFri May 06 21:56:24 +0800 2016
p1165
aVFri May 06 21:55:24 +0800 2016
p1166
aVFri May 06 21:54:05 +0800 2016
p1167
aVFri May 06 21:51:01 +0800 2016
p1168
aVFri May 06 21:50:56 +0800 2016
p1169
aVFri May 06 21:50:21 +0800 2016
p1170
aVFri May 06 21:50:14 +0800 2016
p1171
aVFri May 06 21:49:39 +0800 2016
p1172
aVFri May 06 21:49:02 +0800 2016
p1173
aVFri May 06 21:47:53 +0800 2016
p1174
aVFri May 06 21:46:02 +0800 2016
p1175
aVFri May 06 21:45:08 +0800 2016
p1176
aVFri May 06 21:41:28 +0800 2016
p1177
aVFri May 06 21:38:07 +0800 2016
p1178
aVFri May 06 21:37:52 +0800 2016
p1179
aVFri May 06 21:37:42 +0800 2016
p1180
aVFri May 06 21:37:26 +0800 2016
p1181
aVFri May 06 21:37:03 +0800 2016
p1182
aVFri May 06 21:36:27 +0800 2016
p1183
aVFri May 06 21:36:19 +0800 2016
p1184
aVFri May 06 21:35:03 +0800 2016
p1185
aVFri May 06 21:34:48 +0800 2016
p1186
aVFri May 06 21:32:49 +0800 2016
p1187
aVFri May 06 21:30:11 +0800 2016
p1188
aVFri May 06 21:30:04 +0800 2016
p1189
aVFri May 06 21:28:42 +0800 2016
p1190
aVFri May 06 21:28:37 +0800 2016
p1191
aVFri May 06 21:27:45 +0800 2016
p1192
aVFri May 06 21:27:32 +0800 2016
p1193
aVFri May 06 21:27:11 +0800 2016
p1194
aVFri May 06 21:25:33 +0800 2016
p1195
aVFri May 06 21:25:02 +0800 2016
p1196
aVFri May 06 21:24:46 +0800 2016
p1197
aVFri May 06 21:24:41 +0800 2016
p1198
aVFri May 06 21:23:17 +0800 2016
p1199
aVFri May 06 21:22:27 +0800 2016
p1200
aVFri May 06 21:22:14 +0800 2016
p1201
aVFri May 06 21:22:13 +0800 2016
p1202
aVFri May 06 21:17:40 +0800 2016
p1203
aVFri May 06 21:17:11 +0800 2016
p1204
aVFri May 06 21:15:20 +0800 2016
p1205
aVFri May 06 21:14:11 +0800 2016
p1206
aVFri May 06 21:12:43 +0800 2016
p1207
aVFri May 06 21:11:55 +0800 2016
p1208
aVFri May 06 21:11:08 +0800 2016
p1209
aVFri May 06 21:10:22 +0800 2016
p1210
aVFri May 06 21:10:09 +0800 2016
p1211
aVFri May 06 21:09:57 +0800 2016
p1212
aVFri May 06 21:09:03 +0800 2016
p1213
aVFri May 06 21:08:47 +0800 2016
p1214
aVFri May 06 21:08:28 +0800 2016
p1215
aVFri May 06 21:07:33 +0800 2016
p1216
aVFri May 06 21:06:32 +0800 2016
p1217
aVFri May 06 21:05:43 +0800 2016
p1218
aVFri May 06 21:05:19 +0800 2016
p1219
aVFri May 06 21:05:05 +0800 2016
p1220
aVFri May 06 21:05:02 +0800 2016
p1221
aVFri May 06 21:02:52 +0800 2016
p1222
aVFri May 06 21:02:46 +0800 2016
p1223
aVFri May 06 21:02:34 +0800 2016
p1224
aVFri May 06 21:02:07 +0800 2016
p1225
aVFri May 06 21:01:31 +0800 2016
p1226
aVFri May 06 21:01:03 +0800 2016
p1227
aVFri May 06 21:01:03 +0800 2016
p1228
aVFri May 06 21:01:03 +0800 2016
p1229
aVFri May 06 21:00:03 +0800 2016
p1230
aVFri May 06 21:00:03 +0800 2016
p1231
aVFri May 06 20:56:35 +0800 2016
p1232
aVFri May 06 20:54:06 +0800 2016
p1233
aVFri May 06 20:52:10 +0800 2016
p1234
aVFri May 06 20:51:53 +0800 2016
p1235
aVFri May 06 20:50:05 +0800 2016
p1236
aVFri May 06 20:49:02 +0800 2016
p1237
aVFri May 06 20:48:28 +0800 2016
p1238
aVFri May 06 20:48:26 +0800 2016
p1239
aVFri May 06 20:47:37 +0800 2016
p1240
aVFri May 06 20:47:02 +0800 2016
p1241
aVFri May 06 20:44:46 +0800 2016
p1242
aVSat May 07 23:22:03 +0800 2016
p1243
aVSat May 07 23:20:27 +0800 2016
p1244
aVSat May 07 23:20:03 +0800 2016
p1245
aVSat May 07 23:19:40 +0800 2016
p1246
aVSat May 07 23:17:19 +0800 2016
p1247
aVSat May 07 23:16:19 +0800 2016
p1248
aVSat May 07 23:15:03 +0800 2016
p1249
aVSat May 07 23:12:43 +0800 2016
p1250
aVSat May 07 23:12:08 +0800 2016
p1251
aVSat May 07 23:11:09 +0800 2016
p1252
aVSat May 07 23:08:03 +0800 2016
p1253
aVSat May 07 23:07:56 +0800 2016
p1254
aVSat May 07 23:07:07 +0800 2016
p1255
aVSat May 07 23:05:44 +0800 2016
p1256
aVSat May 07 23:03:36 +0800 2016
p1257
aVSat May 07 23:02:03 +0800 2016
p1258
aVSat May 07 23:01:50 +0800 2016
p1259
aVSat May 07 23:01:47 +0800 2016
p1260
aVSat May 07 23:01:32 +0800 2016
p1261
aVSat May 07 23:01:26 +0800 2016
p1262
aVSat May 07 23:01:24 +0800 2016
p1263
aVSat May 07 23:01:03 +0800 2016
p1264
aVSat May 07 23:00:03 +0800 2016
p1265
aVSat May 07 22:58:05 +0800 2016
p1266
aVSat May 07 22:57:26 +0800 2016
p1267
aVSat May 07 22:57:02 +0800 2016
p1268
aVSat May 07 22:54:24 +0800 2016
p1269
aVSat May 07 22:53:57 +0800 2016
p1270
aVSat May 07 22:53:16 +0800 2016
p1271
aVSat May 07 22:50:07 +0800 2016
p1272
aVSat May 07 22:48:18 +0800 2016
p1273
aVSat May 07 22:48:00 +0800 2016
p1274
aVSat May 07 22:47:34 +0800 2016
p1275
aVSat May 07 22:46:01 +0800 2016
p1276
aVSat May 07 22:43:52 +0800 2016
p1277
aVSat May 07 22:41:03 +0800 2016
p1278
aVSat May 07 22:40:08 +0800 2016
p1279
aVSat May 07 22:36:32 +0800 2016
p1280
aVSat May 07 22:36:15 +0800 2016
p1281
aVSat May 07 22:35:30 +0800 2016
p1282
aVSat May 07 22:35:30 +0800 2016
p1283
aVSat May 07 22:32:39 +0800 2016
p1284
aVSat May 07 22:32:28 +0800 2016
p1285
aVSat May 07 22:31:59 +0800 2016
p1286
aVSat May 07 22:30:44 +0800 2016
p1287
aVSat May 07 22:30:03 +0800 2016
p1288
aVSat May 07 22:30:03 +0800 2016
p1289
aVSat May 07 22:28:18 +0800 2016
p1290
aVSat May 07 22:22:22 +0800 2016
p1291
aVSat May 07 22:21:43 +0800 2016
p1292
aVSat May 07 22:20:05 +0800 2016
p1293
aVSat May 07 22:20:03 +0800 2016
p1294
aVSat May 07 22:19:12 +0800 2016
p1295
aVSat May 07 22:16:03 +0800 2016
p1296
aVSat May 07 22:16:02 +0800 2016
p1297
aVSat May 07 22:15:29 +0800 2016
p1298
aVSat May 07 22:15:26 +0800 2016
p1299
aVSat May 07 22:15:20 +0800 2016
p1300
aVSat May 07 22:15:14 +0800 2016
p1301
aVSat May 07 22:15:05 +0800 2016
p1302
aVSat May 07 22:15:02 +0800 2016
p1303
aVSat May 07 22:14:45 +0800 2016
p1304
aVSat May 07 22:13:10 +0800 2016
p1305
aVSat May 07 22:11:05 +0800 2016
p1306
aVSat May 07 22:10:52 +0800 2016
p1307
aVSat May 07 22:09:12 +0800 2016
p1308
aVSat May 07 22:07:25 +0800 2016
p1309
aVSat May 07 22:07:01 +0800 2016
p1310
aVSat May 07 22:06:00 +0800 2016
p1311
aVSat May 07 22:05:46 +0800 2016
p1312
aVSat May 07 22:05:07 +0800 2016
p1313
aVSat May 07 22:04:17 +0800 2016
p1314
aVSat May 07 22:04:01 +0800 2016
p1315
aVSat May 07 22:03:08 +0800 2016
p1316
aVSat May 07 22:02:02 +0800 2016
p1317
aVSat May 07 22:01:56 +0800 2016
p1318
aVSat May 07 22:01:04 +0800 2016
p1319
aVSat May 07 22:01:03 +0800 2016
p1320
aVSat May 07 22:01:03 +0800 2016
p1321
aVSat May 07 22:00:42 +0800 2016
p1322
aVSat May 07 22:00:20 +0800 2016
p1323
aVSat May 07 22:00:19 +0800 2016
p1324
aVSat May 07 22:00:19 +0800 2016
p1325
aVSat May 07 22:00:08 +0800 2016
p1326
aVSat May 07 22:00:03 +0800 2016
p1327
aVSat May 07 22:00:03 +0800 2016
p1328
aVSat May 07 21:56:24 +0800 2016
p1329
aVSat May 07 21:56:00 +0800 2016
p1330
aVSat May 07 21:54:28 +0800 2016
p1331
aVSat May 07 21:53:09 +0800 2016
p1332
aVSat May 07 21:51:01 +0800 2016
p1333
aVSat May 07 21:50:05 +0800 2016
p1334
aVSat May 07 21:45:39 +0800 2016
p1335
aVSat May 07 21:45:05 +0800 2016
p1336
aVSat May 07 21:43:28 +0800 2016
p1337
aVSat May 07 21:41:59 +0800 2016
p1338
aVSat May 07 21:41:25 +0800 2016
p1339
aVSat May 07 21:38:35 +0800 2016
p1340
aVSat May 07 21:37:20 +0800 2016
p1341
aVSat May 07 21:37:03 +0800 2016
p1342
as.